
Flowmeter_HMI.elf:     file format elf32-littleriscv
Flowmeter_HMI.elf
architecture: riscv:rv32, flags 0x00000112:
EXEC_P, HAS_SYMS, D_PAGED
start address 0x00000000

Program Header:
    LOAD off    0x00001000 vaddr 0x00000000 paddr 0x00000000 align 2**12
         filesz 0x00004d18 memsz 0x00004d18 flags r-x
    LOAD off    0x00006000 vaddr 0x20000000 paddr 0x00004d18 align 2**12
         filesz 0x00000048 memsz 0x0000056c flags rw-
    LOAD off    0x00006800 vaddr 0x20007800 paddr 0x20007800 align 2**12
         filesz 0x00000000 memsz 0x00000800 flags rw-

Sections:
Idx Name          Size      VMA       LMA       File off  Algn
  0 .init         00000004  00000000  00000000  00001000  2**1
                  CONTENTS, ALLOC, LOAD, READONLY, CODE
  1 .vector       000001bc  00000004  00000004  00001004  2**1
                  CONTENTS, ALLOC, LOAD, READONLY, CODE
  2 .text         00004b58  000001c0  000001c0  000011c0  2**2
                  CONTENTS, ALLOC, LOAD, READONLY, CODE
  3 .fini         00000000  00004d18  00004d18  00006048  2**0
                  CONTENTS, ALLOC, LOAD, CODE
  4 .dalign       00000000  20000000  20000000  00006048  2**0
                  CONTENTS
  5 .dlalign      00000000  00004d18  00004d18  00006048  2**0
                  CONTENTS
  6 .data         00000048  20000000  00004d18  00006000  2**2
                  CONTENTS, ALLOC, LOAD, DATA
  7 .bss          00000524  20000048  00004d60  00006048  2**2
                  ALLOC
  8 .stack        00000800  20007800  20007800  00006800  2**0
                  ALLOC
  9 .debug_info   000c66f9  00000000  00000000  00006048  2**0
                  CONTENTS, READONLY, DEBUGGING
 10 .debug_abbrev 00004aba  00000000  00000000  000cc741  2**0
                  CONTENTS, READONLY, DEBUGGING
 11 .debug_loc    0003c0ae  00000000  00000000  000d11fb  2**0
                  CONTENTS, READONLY, DEBUGGING
 12 .debug_aranges 000034f8  00000000  00000000  0010d2b0  2**3
                  CONTENTS, READONLY, DEBUGGING
 13 .debug_ranges 00003918  00000000  00000000  001107a8  2**3
                  CONTENTS, READONLY, DEBUGGING
 14 .debug_line   00037a2b  00000000  00000000  001140c0  2**0
                  CONTENTS, READONLY, DEBUGGING
 15 .debug_str    00019744  00000000  00000000  0014baeb  2**0
                  CONTENTS, READONLY, DEBUGGING
 16 .comment      00000033  00000000  00000000  0016522f  2**0
                  CONTENTS, READONLY
 17 .debug_frame  0000db9c  00000000  00000000  00165264  2**2
                  CONTENTS, READONLY, DEBUGGING
SYMBOL TABLE:
00000000 l    d  .init	00000000 .init
00000004 l    d  .vector	00000000 .vector
000001c0 l    d  .text	00000000 .text
00004d18 l    d  .fini	00000000 .fini
20000000 l    d  .dalign	00000000 .dalign
00004d18 l    d  .dlalign	00000000 .dlalign
20000000 l    d  .data	00000000 .data
20000048 l    d  .bss	00000000 .bss
20007800 l    d  .stack	00000000 .stack
00000000 l    d  .debug_info	00000000 .debug_info
00000000 l    d  .debug_abbrev	00000000 .debug_abbrev
00000000 l    d  .debug_loc	00000000 .debug_loc
00000000 l    d  .debug_aranges	00000000 .debug_aranges
00000000 l    d  .debug_ranges	00000000 .debug_ranges
00000000 l    d  .debug_line	00000000 .debug_line
00000000 l    d  .debug_str	00000000 .debug_str
00000000 l    d  .comment	00000000 .comment
00000000 l    d  .debug_frame	00000000 .debug_frame
00000000 l    df *ABS*	00000000 ./Startup/startup_ch32v30x_D8.o
00000004 l       .vector	00000000 _vector_base
00000000 l    df *ABS*	00000000 mui.c
000002c8 l     F .text	00000010 mui_task_draw
000002d8 l     F .text	00000010 mui_task_form_start
000002e8 l     F .text	00000010 mui_task_form_end
000002f8 l     F .text	00000008 mui_uif_is_cursor_selectable.isra.0
00000300 l     F .text	00000014 mui_task_find_first_cursor_uif
00000314 l     F .text	00000014 mui_task_find_last_cursor_uif
00000328 l     F .text	00000022 mui_task_find_prev_cursor_uif
0000034a l     F .text	00000028 mui_task_find_next_cursor_uif
00000378 l     F .text	0000007c mui_fds_get_cmd_size_without_text
000003f4 l     F .text	0000007c mui_fds_get_cmd_size
00000470 l     F .text	00000162 mui_prepare_current_field
000005d2 l     F .text	0000002a mui_send_cursor_msg
000005fc l     F .text	0000000e mui_send_cursor_enter_msg
0000060a l     F .text	00000038 mui_inner_loop_over_form
00000642 l     F .text	00000018 mui_loop_over_form
00000000 l    df *ABS*	00000000 mui_u8g2.c
00000a0a l     F .text	0000007e mui_u8g2_handle_scroll_next_prev_events
00000a88 l     F .text	0000007a mui_u8g2_u16_list_child_mse_common
00000b02 l     F .text	00000074 mui_u8g2_u8_opt_child_mse_common
00000000 l    df *ABS*	00000000 u8g2_box.c
00000000 l    df *ABS*	00000000 u8g2_buffer.c
00000e74 l     F .text	0000005e u8g2_send_buffer
00000000 l    df *ABS*	00000000 u8g2_button.c
00000000 l    df *ABS*	00000000 u8g2_cleardisplay.c
00000000 l    df *ABS*	00000000 u8g2_d_memory.c
20000050 l     O .bss	00000400 buf.11378
00000000 l    df *ABS*	00000000 u8g2_d_setup.c
00000000 l    df *ABS*	00000000 u8g2_font.c
0000124c l     F .text	00000014 u8g2_font_get_word
0000136a l     F .text	0000003c u8g2_font_setup_decode
000016de l     F .text	0000007c u8g2_string_width
000017d2 l     F .text	00000078 u8g2_draw_string
00000000 l    df *ABS*	00000000 u8g2_hvline.c
00000000 l    df *ABS*	00000000 u8g2_intersection.c
00000000 l    df *ABS*	00000000 u8g2_ll_hvline.c
00000000 l    df *ABS*	00000000 u8g2_setup.c
00001b12 l     F .text	00000062 u8g2_update_dimension_common
00001bba l     F .text	0000006a u8g2_apply_clip_window
00000000 l    df *ABS*	00000000 u8x8_8x8.c
00000000 l    df *ABS*	00000000 u8x8_byte.c
00000000 l    df *ABS*	00000000 u8x8_cad.c
00000000 l    df *ABS*	00000000 u8x8_d_ssd1309.c
00001ec6 l     F .text	000000ac u8x8_d_ssd1309_generic
00004b10 l     O .text	00000029 u8x8_d_ssd1309_128x64_noname_init_seq
00004b3c l     O .text	00000018 u8x8_ssd1309_128x64_noname0_display_info
20000028 l     O .data	00000007 u8x8_d_ssd1309_128x64_flip0_seq
20000030 l     O .data	00000007 u8x8_d_ssd1309_128x64_flip1_seq
20000038 l     O .data	00000005 u8x8_d_ssd1309_powersave0_seq
20000040 l     O .data	00000005 u8x8_d_ssd1309_powersave1_seq
00000000 l    df *ABS*	00000000 u8x8_debounce.c
00000000 l    df *ABS*	00000000 u8x8_display.c
00000000 l    df *ABS*	00000000 u8x8_gpio.c
00000000 l    df *ABS*	00000000 u8x8_setup.c
00000000 l    df *ABS*	00000000 u8g2_glue.c
20000020 l     O .data	00000004 transmitDC
00000000 l    df *ABS*	00000000 ch32v30x_it.c
00000000 l    df *ABS*	00000000 main.c
0000246a l     F .text	00000004 menu_get_cnt
0000246e l     F .text	00000008 menu_get_str
00002476 l     F .text	00000034 mui_hrule
20000000 l     O .data	00000010 alt_menu
00004b88 l     O .text	00000010 __compound_literal.0
00000000 l    df *ABS*	00000000 system_ch32v30x.c
00000000 l    df *ABS*	00000000 ch32v30x_gpio.c
00000000 l    df *ABS*	00000000 ch32v30x_misc.c
00000000 l    df *ABS*	00000000 ch32v30x_rcc.c
00000000 l    df *ABS*	00000000 debug.c
2000004c l     O .bss	00000002 p_ms
2000004e l     O .bss	00000001 p_us
00000000 l    df *ABS*	00000000 u8g2_fonts.c
0000212a g     F .text	00000024 u8x8_DrawTile
000024aa g     F .text	000000f4 main
000020b4 g     F .text	0000000c u8x8_d_helper_display_setup_memory
00002718  w      .text	00000000 DMA1_Channel4_IRQHandler
00001a0e g     F .text	00000014 u8g2_SetDrawColor
00000798 g     F .text	00000026 mui_LeaveForm
0000169e g     F .text	00000040 u8g2_GetGlyphWidth
00002718  w      .text	00000000 EXTI1_IRQHandler
00002718  w      .text	00000000 DMA2_Channel11_IRQHandler
000001c8 g     F .text	00000028 .hidden __riscv_save_10
000001c0 g     F .text	00000030 .hidden __riscv_save_12
000001c8 g     F .text	00000028 .hidden __riscv_save_11
00002718  w      .text	00000000 TIM10_UP_IRQHandler
000009b8 g     F .text	00000046 mui_PrevField
2000056c g       .bss	00000000 _ebss
00002718  w      .text	00000000 UART4_IRQHandler
00002718  w      .text	00000000 TIM8_CC_IRQHandler
00002718  w      .text	00000000 SPI2_IRQHandler
0000175a g     F .text	00000006 u8g2_SetFontMode
00002718  w      .text	00000000 EXTI9_5_IRQHandler
00002866 g     F .text	0000000a GPIO_ReadInputDataBit
00001c5c g     F .text	0000000a u8g2_update_dimension_r2
00000b8e g     F .text	00000006 mui_get_y
00000b76 g     F .text	00000018 mui_get_x
00002718  w      .text	00000000 SysTick_Handler
00000c20 g     F .text	0000001e mui_u8g2_set_font_style_function
00002718  w      .text	00000000 TIM8_TRG_COM_IRQHandler
00002718  w      .text	00000000 SPI1_IRQHandler
0000065a g     F .text	00000050 mui_fds_next_token
00002718  w      .text	00000000 PVD_IRQHandler
00002718  w      .text	00000000 TIM5_IRQHandler
00001b74 g     F .text	00000046 u8g2_draw_l90_r2
00000220 g     F .text	000000a8 memset
20007800 g       .stack	00000000 _heap_end
00001cbc g     F .text	000000a0 u8x8_utf8_next
00000372 g     F .text	00000006 mui_get_fds_char
20000450 g     O .bss	00000088 mui
20000010 g     O .data	00000010 AHBPrescTable
00000bf8 g     F .text	00000028 mui_u8g2_draw_button_pi
00002998 g     O .text	00001252 u8g2_font_6x12_t_cyrillic
00002718  w      .text	00000000 TIM9_UP_IRQHandler
0000259e g     F .text	000000ea SystemInit
00001a3c g     F .text	0000002a u8g2_IsIntersection
000001c8 g     F .text	00000028 .hidden __riscv_save_8
000001c8 g     F .text	00000028 .hidden __riscv_save_9
00002718  w      .text	00000000 TIM9_BRK_IRQHandler
000006aa g     F .text	00000024 mui_fds_first_token
00002718  w      .text	00000000 WWDG_IRQHandler
00002718  w      .text	00000000 ADC1_2_IRQHandler
00002718  w      .text	00000000 DMA1_Channel5_IRQHandler
00001404 g     F .text	000000ae u8g2_font_decode_len
00002718  w      .text	00000000 DMA2_Channel5_IRQHandler
00001a66 g     F .text	000000ac u8g2_ll_hvline_vertical_top_lsb
000021a8 g     F .text	0000002c u8x8_SetupDefaults
00002718  w      .text	00000000 Break_Point_Handler
00001264 g     F .text	000000b2 u8g2_read_font_info
00002718  w      .text	00000000 RCC_IRQHandler
00002718  w      .text	00000000 I2C1_ER_IRQHandler
0000081e g     F .text	00000060 mui_SaveCursorPosition
000014b2 g     F .text	00000154 u8g2_font_decode_glyph
000020c0 g     F .text	0000006a u8x8_d_helper_display_init
00001c24 g     F .text	00000038 u8g2_update_page_win_r2
00003bec g     O .text	000006a0 u8g2_font_haxrcorp4089_t_cyrillic
00002718  w      .text	00000000 RTC_IRQHandler
00002718  w      .text	00000000 DMA1_Channel6_IRQHandler
00000d0a g     F .text	000000a8 mui_u8g2_u16_list_goto_w1_pi
00002172 g     F .text	00000012 u8x8_SetPowerSave
00001a22 g     F .text	0000001a u8g2_is_intersection_decision_tree
00001d88 g     F .text	00000018 u8x8_byte_SendByte
0000087e g     F .text	00000046 mui_NextField
20000820 g       .data	00000000 __global_pointer$
00002718  w      .text	00000000 TIM1_UP_IRQHandler
00002718  w      .text	00000000 TIM9_TRG_COM_IRQHandler
000028be g     F .text	00000036 Delay_Us
000006f0 g     F .text	0000001e mui_fds_get_token_cnt
200004d8 g     O .bss	00000094 u8g2
00002718  w      .text	00000000 DMA1_Channel2_IRQHandler
000006ce g     F .text	00000022 mui_fds_get_nth_token
00000df2 g     F .text	00000082 u8g2_DrawFrame
00002718  w      .text	00000000 I2C2_EV_IRQHandler
00001208 g     F .text	00000044 u8g2_Setup_ssd1309_128x64_noname0_f
000001f0 g     F .text	0000000c .hidden __riscv_save_2
00001de8 g     F .text	00000012 u8x8_cad_EndTransfer
00002718  w      .text	00000000 TIM3_IRQHandler
00002718  w      .text	00000000 DMA1_Channel7_IRQHandler
000001f0 g     F .text	0000000c .hidden __riscv_save_0
000001f0 g     F .text	0000000c .hidden __riscv_save_1
00002876 g     F .text	0000001e RCC_APB2PeriphClockCmd
000001f0 g     F .text	0000000c .hidden __riscv_save_3
20000024 g     O .data	00000004 SystemCoreClock
00000800 g       *ABS*	00000000 __stack_size
000001d6 g     F .text	0000001a .hidden __riscv_save_7
000001d6 g     F .text	0000001a .hidden __riscv_save_6
00001e74 g     F .text	00000052 u8x8_cad_001
00002718  w      .text	00000000 USB_LP_CAN1_RX0_IRQHandler
000001d6 g     F .text	0000001a .hidden __riscv_save_4
000001d6 g     F .text	0000001a .hidden __riscv_save_5
20000000 g       .dalign	00000000 _data_vma
00002718  w      .text	00000000 USART2_IRQHandler
00000214 g     F .text	0000000c .hidden __riscv_restore_1
000013c0 g     F .text	00000022 u8g2_add_vector_y
00002870 g     F .text	00000006 NVIC_PriorityGroupConfig
000013e2 g     F .text	00000022 u8g2_add_vector_x
000011fc g     F .text	0000000c u8g2_m_16_8_f
00002718  w      .text	00000000 DMA2_Channel9_IRQHandler
00000f26 g     F .text	00000046 u8g2_NextPage
00002718  w      .text	00000000 TIM10_BRK_IRQHandler
00002468 g     F .text	00000002 HardFault_Handler
00002718  w      .text	00000000 Ecall_M_Mode_Handler
00000200 g     F .text	00000020 .hidden __riscv_restore_8
00000f0e g     F .text	00000018 u8g2_FirstPage
0000020a g     F .text	00000016 .hidden __riscv_restore_6
000018f4 g     F .text	00000016 u8g2_draw_hv_line_2dir
000028f4 g     F .text	00000036 Delay_Ms
0000020a g     F .text	00000016 .hidden __riscv_restore_5
00000214 g     F .text	0000000c .hidden __riscv_restore_2
0000020a g     F .text	00000016 .hidden __riscv_restore_7
00000000 g       .init	00000000 _start
00000214 g     F .text	0000000c .hidden __riscv_restore_3
00000214 g     F .text	0000000c .hidden __riscv_restore_0
00000db2 g     F .text	00000040 u8g2_DrawBox
0000020a g     F .text	00000016 .hidden __riscv_restore_4
00002184 g     F .text	00000012 u8x8_RefreshDisplay
00002718  w      .text	00000000 TIM8_BRK_IRQHandler
00002718  w      .text	00000000 FLASH_IRQHandler
0000096c g     F .text	00000028 mui_RestoreForm
00000928 g     F .text	00000044 mui_GotoForm
00002718  w      .text	00000000 SDIO_IRQHandler
00000200 g     F .text	00000020 .hidden __riscv_restore_9
00002718  w      .text	00000000 EXTI15_10_IRQHandler
000008c4 g     F .text	00000064 mui_EnterForm
00002718  w      .text	00000000 DMA2_Channel8_IRQHandler
00002718  w      .text	00000000 TIM1_BRK_IRQHandler
00002718  w      .text	00000000 USART1_IRQHandler
00001fe0  w    F .text	000000d4 u8x8_GetMenuEvent
00000750 g     F .text	00000026 mui_GetSelectableFieldTextOption
00002718  w      .text	00000000 TAMPER_IRQHandler
00002718  w      .text	00000000 TIM2_IRQHandler
00002160 g     F .text	00000012 u8x8_InitDisplay
0000185e g     F .text	00000056 u8g2_UpdateRefHeight
0000214e g     F .text	00000012 u8x8_SetupMemory
00002718  w      .text	00000000 FSMC_IRQHandler
00002718  w      .text	00000000 CAN1_SCE_IRQHandler
00004c88 g     O .text	0000006c muif_list
000027a4 g     F .text	000000c2 GPIO_Init
00002718  w      .text	00000000 DMA2_Channel3_IRQHandler
20008000 g       .stack	00000000 _eusrstack
20000048 g       .bss	00000000 _sbss
00002688 g     F .text	00000090 SystemCoreClockUpdate
00004aec g     O .text	0000000c u8g2_cb_r2
00002718  w      .text	00000000 DMA2_Channel7_IRQHandler
00002718  w      .text	00000000 TIM8_UP_IRQHandler
00002718  w      .text	00000000 SW_Handler
000009fe g     F .text	0000000c mui_SendSelect
00002718  w      .text	00000000 DMA2_Channel6_IRQHandler
00004660 g     O .text	0000048a u8g2_font_streamline_food_drink_t
00000776 g     F .text	00000022 mui_GetSelectableFieldOptionCnt
00000f6c g     F .text	000001da u8g2_DrawButtonFrame
0000428c g     O .text	000003d2 u8g2_font_profont12_tr
000022d4 g     F .text	00000190 u8x8_byte_HW_spi
000001fc g     F .text	00000024 .hidden __riscv_restore_12
00002718  w      .text	00000000 Ecall_U_Mode_Handler
00000200 g     F .text	00000020 .hidden __riscv_restore_11
00000000 g       .init	00000000 _sinit
00002718  w      .text	00000000 RNG_IRQHandler
20000048 g     O .bss	00000004 NVIC_Priority_Group
000018c0 g     F .text	00000020 u8g2_SetFont
00001760 g     F .text	00000072 u8g2_DrawGlyph
00002718  w      .text	00000000 EXTI2_IRQHandler
00002718  w      .text	00000000 DMA1_Channel3_IRQHandler
00002718  w      .text	00000000 OTG_FS_IRQHandler
00002196 g     F .text	0000000e u8x8_gpio_call
00002718  w      .text	00000000 UART5_IRQHandler
0000190a g     F .text	000000ec u8g2_DrawHVLine
00000994 g     F .text	00000024 mui_GotoFormAutoCursorPosition
0000070e g     F .text	00000032 mui_Init
00002718  w      .text	00000000 UART8_IRQHandler
00000c74 g     F .text	00000096 mui_u8g2_goto_form_w1_pi
00002718  w      .text	00000000 TIM10_CC_IRQHandler
00001dd6 g     F .text	00000012 u8x8_cad_StartTransfer
000018b4 g     F .text	0000000c u8g2_SetFontPosBaseline
00001146 g     F .text	0000009e u8g2_DrawButtonUTF8
00002718  w      .text	00000000 DMA2_Channel10_IRQHandler
0000271a  w      .text	00000000 handle_reset
00002718  w      .text	00000000 TIM4_IRQHandler
00002718  w      .text	00000000 USART3_IRQHandler
00001db2 g     F .text	00000012 u8x8_cad_SendArg
00001d5c g     F .text	00000006 u8x8_utf8_init
00002718  w      .text	00000000 UART7_IRQHandler
00001316 g     F .text	00000054 u8g2_font_decode_get_unsigned_bits
00000bdc g     F .text	0000001c mui_u8g2_get_pi_flags
00002464 g     F .text	00000004 NMI_Handler
00000b94 g     F .text	00000004 mui_get_U8g2
00001606 g     F .text	00000098 u8g2_font_get_glyph_data
000011e4 g     F .text	00000018 u8g2_ClearDisplay
00004d18 g       .dlalign	00000000 _data_lma
00002718  w      .text	00000000 EXTI3_IRQHandler
00001a02 g     F .text	0000000c u8g2_DrawVLine
00001d62 g     F .text	00000014 u8x8_byte_SetDC
00002718  w      .text	00000000 I2C2_ER_IRQHandler
00001da0 g     F .text	00000012 u8x8_cad_SendCmd
00002718  w      .text	00000000 TIM1_TRG_COM_IRQHandler
000021d4 g     F .text	0000002e u8x8_Setup
00002718  w      .text	00000000 TIM9_CC_IRQHandler
00001f72 g     F .text	0000006e u8x8_d_ssd1309_128x64_noname0
000013a6 g     F .text	0000001a u8g2_font_decode_get_signed_bits
00002718  w      .text	00000000 TIM6_IRQHandler
20000048 g       .data	00000000 _edata
000018e0 g     F .text	00000014 u8g2_GetUTF8Width
00002718  w      .text	00000000 RTCAlarm_IRQHandler
00002718  w      .text	00000000 I2C1_EV_IRQHandler
00002718  w      .text	00000000 TIM1_CC_IRQHandler
00001d76 g     F .text	00000012 u8x8_byte_SendBytes
00000004 g       .init	00000000 _einit
00002718  w      .text	00000000 SPI3_IRQHandler
00002718  w      .text	00000000 DMA1_Channel1_IRQHandler
000021a4 g     F .text	00000004 u8x8_dummy_cb
00004b98 g     O .text	000000ee fds_data
000007be g     F .text	00000060 mui_SaveFormWithCursorPosition
00000ef2 g     F .text	0000001c u8g2_SetBufferCurrTileRow
00002718  w      .text	00000000 TIM7_IRQHandler
00002718  w      .text	00000000 DMA2_Channel4_IRQHandler
00000c66 g     F .text	0000000e mui_u8g2_goto_data
00002202 g     F .text	000000d2 u8x8_gpio_and_delay_HW_spi
00002718  w      .text	00000000 EXTI0_IRQHandler
00002718  w      .text	00000000 DMA2_Channel2_IRQHandler
2000056c g       .bss	00000000 _end
00001dc4 g     F .text	00000012 u8x8_cad_SendData
00001c7a g     F .text	00000042 u8g2_SetupBuffer
00000200 g     F .text	00000020 .hidden __riscv_restore_10
00002718  w      .text	00000000 DMA2_Channel1_IRQHandler
00002718  w      .text	00000000 TIM10_TRG_COM_IRQHandler
00002718  w      .text	00000000 EXTI4_IRQHandler
00000740 g     F .text	00000010 mui_Draw
00002718  w      .text	00000000 CAN1_RX1_IRQHandler
00001260 g     F .text	00000004 u8g2_font_calc_vref_font
00000b98 g     F .text	00000044 mui_u8g2_draw_button_utf
00001c66 g     F .text	00000014 u8g2_SetMaxClipWindow
0000184a g     F .text	00000014 u8g2_DrawUTF8
00000ed2 g     F .text	00000020 u8g2_ClearBuffer
00002718  w      .text	00000000 USB_HP_CAN1_TX_IRQHandler
000019f6 g     F .text	0000000c u8g2_DrawHLine
00002718  w      .text	00000000 UART6_IRQHandler
00000c3e g     F .text	00000028 mui_u8g2_draw_text
00001dfa g     F .text	0000007a u8x8_cad_SendSequence
00002894 g     F .text	0000002a Delay_Init



Disassembly of section .init:

00000000 <_sinit>:
   0:	71a0206f          	j	271a <handle_reset>

Disassembly of section .vector:

00000004 <_vector_base>:
	...
   c:	2464                	fld	fs1,200(s0)
   e:	0000                	unimp
  10:	2468                	fld	fa0,200(s0)
  12:	0000                	unimp
  14:	0000                	unimp
  16:	0000                	unimp
  18:	2718                	fld	fa4,8(a4)
	...
  22:	0000                	unimp
  24:	2718                	fld	fa4,8(a4)
  26:	0000                	unimp
  28:	2718                	fld	fa4,8(a4)
	...
  32:	0000                	unimp
  34:	2718                	fld	fa4,8(a4)
  36:	0000                	unimp
  38:	0000                	unimp
  3a:	0000                	unimp
  3c:	2718                	fld	fa4,8(a4)
  3e:	0000                	unimp
  40:	0000                	unimp
  42:	0000                	unimp
  44:	2718                	fld	fa4,8(a4)
  46:	0000                	unimp
  48:	2718                	fld	fa4,8(a4)
  4a:	0000                	unimp
  4c:	2718                	fld	fa4,8(a4)
  4e:	0000                	unimp
  50:	2718                	fld	fa4,8(a4)
  52:	0000                	unimp
  54:	2718                	fld	fa4,8(a4)
  56:	0000                	unimp
  58:	2718                	fld	fa4,8(a4)
  5a:	0000                	unimp
  5c:	2718                	fld	fa4,8(a4)
  5e:	0000                	unimp
  60:	2718                	fld	fa4,8(a4)
  62:	0000                	unimp
  64:	2718                	fld	fa4,8(a4)
  66:	0000                	unimp
  68:	2718                	fld	fa4,8(a4)
  6a:	0000                	unimp
  6c:	2718                	fld	fa4,8(a4)
  6e:	0000                	unimp
  70:	2718                	fld	fa4,8(a4)
  72:	0000                	unimp
  74:	2718                	fld	fa4,8(a4)
  76:	0000                	unimp
  78:	2718                	fld	fa4,8(a4)
  7a:	0000                	unimp
  7c:	2718                	fld	fa4,8(a4)
  7e:	0000                	unimp
  80:	2718                	fld	fa4,8(a4)
  82:	0000                	unimp
  84:	2718                	fld	fa4,8(a4)
  86:	0000                	unimp
  88:	2718                	fld	fa4,8(a4)
  8a:	0000                	unimp
  8c:	2718                	fld	fa4,8(a4)
  8e:	0000                	unimp
  90:	2718                	fld	fa4,8(a4)
  92:	0000                	unimp
  94:	2718                	fld	fa4,8(a4)
  96:	0000                	unimp
  98:	2718                	fld	fa4,8(a4)
  9a:	0000                	unimp
  9c:	2718                	fld	fa4,8(a4)
  9e:	0000                	unimp
  a0:	2718                	fld	fa4,8(a4)
  a2:	0000                	unimp
  a4:	2718                	fld	fa4,8(a4)
  a6:	0000                	unimp
  a8:	2718                	fld	fa4,8(a4)
  aa:	0000                	unimp
  ac:	2718                	fld	fa4,8(a4)
  ae:	0000                	unimp
  b0:	2718                	fld	fa4,8(a4)
  b2:	0000                	unimp
  b4:	2718                	fld	fa4,8(a4)
  b6:	0000                	unimp
  b8:	2718                	fld	fa4,8(a4)
  ba:	0000                	unimp
  bc:	2718                	fld	fa4,8(a4)
  be:	0000                	unimp
  c0:	2718                	fld	fa4,8(a4)
  c2:	0000                	unimp
  c4:	2718                	fld	fa4,8(a4)
  c6:	0000                	unimp
  c8:	2718                	fld	fa4,8(a4)
  ca:	0000                	unimp
  cc:	2718                	fld	fa4,8(a4)
  ce:	0000                	unimp
  d0:	2718                	fld	fa4,8(a4)
  d2:	0000                	unimp
  d4:	2718                	fld	fa4,8(a4)
  d6:	0000                	unimp
  d8:	2718                	fld	fa4,8(a4)
  da:	0000                	unimp
  dc:	2718                	fld	fa4,8(a4)
  de:	0000                	unimp
  e0:	2718                	fld	fa4,8(a4)
  e2:	0000                	unimp
  e4:	2718                	fld	fa4,8(a4)
  e6:	0000                	unimp
  e8:	2718                	fld	fa4,8(a4)
  ea:	0000                	unimp
  ec:	0000                	unimp
  ee:	0000                	unimp
  f0:	2718                	fld	fa4,8(a4)
  f2:	0000                	unimp
  f4:	2718                	fld	fa4,8(a4)
  f6:	0000                	unimp
  f8:	2718                	fld	fa4,8(a4)
  fa:	0000                	unimp
  fc:	2718                	fld	fa4,8(a4)
  fe:	0000                	unimp
 100:	2718                	fld	fa4,8(a4)
 102:	0000                	unimp
 104:	2718                	fld	fa4,8(a4)
 106:	0000                	unimp
 108:	2718                	fld	fa4,8(a4)
 10a:	0000                	unimp
 10c:	2718                	fld	fa4,8(a4)
 10e:	0000                	unimp
 110:	2718                	fld	fa4,8(a4)
 112:	0000                	unimp
 114:	2718                	fld	fa4,8(a4)
 116:	0000                	unimp
 118:	2718                	fld	fa4,8(a4)
 11a:	0000                	unimp
 11c:	2718                	fld	fa4,8(a4)
 11e:	0000                	unimp
 120:	2718                	fld	fa4,8(a4)
 122:	0000                	unimp
 124:	2718                	fld	fa4,8(a4)
 126:	0000                	unimp
 128:	2718                	fld	fa4,8(a4)
 12a:	0000                	unimp
 12c:	2718                	fld	fa4,8(a4)
 12e:	0000                	unimp
 130:	2718                	fld	fa4,8(a4)
 132:	0000                	unimp
 134:	2718                	fld	fa4,8(a4)
	...
 14e:	0000                	unimp
 150:	2718                	fld	fa4,8(a4)
	...
 15e:	0000                	unimp
 160:	2718                	fld	fa4,8(a4)
 162:	0000                	unimp
 164:	2718                	fld	fa4,8(a4)
 166:	0000                	unimp
 168:	2718                	fld	fa4,8(a4)
 16a:	0000                	unimp
 16c:	2718                	fld	fa4,8(a4)
 16e:	0000                	unimp
 170:	2718                	fld	fa4,8(a4)
 172:	0000                	unimp
 174:	2718                	fld	fa4,8(a4)
 176:	0000                	unimp
 178:	2718                	fld	fa4,8(a4)
 17a:	0000                	unimp
 17c:	2718                	fld	fa4,8(a4)
 17e:	0000                	unimp
 180:	2718                	fld	fa4,8(a4)
 182:	0000                	unimp
 184:	2718                	fld	fa4,8(a4)
 186:	0000                	unimp
 188:	2718                	fld	fa4,8(a4)
 18a:	0000                	unimp
 18c:	2718                	fld	fa4,8(a4)
 18e:	0000                	unimp
 190:	2718                	fld	fa4,8(a4)
 192:	0000                	unimp
 194:	2718                	fld	fa4,8(a4)
 196:	0000                	unimp
 198:	2718                	fld	fa4,8(a4)
 19a:	0000                	unimp
 19c:	2718                	fld	fa4,8(a4)
 19e:	0000                	unimp
 1a0:	2718                	fld	fa4,8(a4)
	...

Disassembly of section .text:

000001c0 <__riscv_save_12>:
     1c0:	7139                	addi	sp,sp,-64
     1c2:	4301                	li	t1,0
     1c4:	c66e                	sw	s11,12(sp)
     1c6:	a019                	j	1cc <__riscv_save_10+0x4>

000001c8 <__riscv_save_10>:
     1c8:	7139                	addi	sp,sp,-64
     1ca:	5341                	li	t1,-16
     1cc:	c86a                	sw	s10,16(sp)
     1ce:	ca66                	sw	s9,20(sp)
     1d0:	cc62                	sw	s8,24(sp)
     1d2:	ce5e                	sw	s7,28(sp)
     1d4:	a019                	j	1da <__riscv_save_4+0x4>

000001d6 <__riscv_save_4>:
     1d6:	7139                	addi	sp,sp,-64
     1d8:	5301                	li	t1,-32
     1da:	d05a                	sw	s6,32(sp)
     1dc:	d256                	sw	s5,36(sp)
     1de:	d452                	sw	s4,40(sp)
     1e0:	d64e                	sw	s3,44(sp)
     1e2:	d84a                	sw	s2,48(sp)
     1e4:	da26                	sw	s1,52(sp)
     1e6:	dc22                	sw	s0,56(sp)
     1e8:	de06                	sw	ra,60(sp)
     1ea:	40610133          	sub	sp,sp,t1
     1ee:	8282                	jr	t0

000001f0 <__riscv_save_0>:
     1f0:	1141                	addi	sp,sp,-16
     1f2:	c04a                	sw	s2,0(sp)
     1f4:	c226                	sw	s1,4(sp)
     1f6:	c422                	sw	s0,8(sp)
     1f8:	c606                	sw	ra,12(sp)
     1fa:	8282                	jr	t0

000001fc <__riscv_restore_12>:
     1fc:	4db2                	lw	s11,12(sp)
     1fe:	0141                	addi	sp,sp,16

00000200 <__riscv_restore_10>:
     200:	4d02                	lw	s10,0(sp)
     202:	4c92                	lw	s9,4(sp)
     204:	4c22                	lw	s8,8(sp)
     206:	4bb2                	lw	s7,12(sp)
     208:	0141                	addi	sp,sp,16

0000020a <__riscv_restore_4>:
     20a:	4b02                	lw	s6,0(sp)
     20c:	4a92                	lw	s5,4(sp)
     20e:	4a22                	lw	s4,8(sp)
     210:	49b2                	lw	s3,12(sp)
     212:	0141                	addi	sp,sp,16

00000214 <__riscv_restore_0>:
     214:	4902                	lw	s2,0(sp)
     216:	4492                	lw	s1,4(sp)
     218:	4422                	lw	s0,8(sp)
     21a:	40b2                	lw	ra,12(sp)
     21c:	0141                	addi	sp,sp,16
     21e:	8082                	ret

00000220 <memset>:
     220:	433d                	li	t1,15
     222:	872a                	mv	a4,a0
     224:	02c37363          	bgeu	t1,a2,24a <memset+0x2a>
     228:	00f77793          	andi	a5,a4,15
     22c:	efbd                	bnez	a5,2aa <memset+0x8a>
     22e:	e5ad                	bnez	a1,298 <memset+0x78>
     230:	ff067693          	andi	a3,a2,-16
     234:	8a3d                	andi	a2,a2,15
     236:	96ba                	add	a3,a3,a4
     238:	c30c                	sw	a1,0(a4)
     23a:	c34c                	sw	a1,4(a4)
     23c:	c70c                	sw	a1,8(a4)
     23e:	c74c                	sw	a1,12(a4)
     240:	0741                	addi	a4,a4,16
     242:	fed76be3          	bltu	a4,a3,238 <memset+0x18>
     246:	e211                	bnez	a2,24a <memset+0x2a>
     248:	8082                	ret
     24a:	40c306b3          	sub	a3,t1,a2
     24e:	068a                	slli	a3,a3,0x2
     250:	00000297          	auipc	t0,0x0
     254:	9696                	add	a3,a3,t0
     256:	00a68067          	jr	10(a3)
     25a:	00b70723          	sb	a1,14(a4)
     25e:	00b706a3          	sb	a1,13(a4)
     262:	00b70623          	sb	a1,12(a4)
     266:	00b705a3          	sb	a1,11(a4)
     26a:	00b70523          	sb	a1,10(a4)
     26e:	00b704a3          	sb	a1,9(a4)
     272:	00b70423          	sb	a1,8(a4)
     276:	00b703a3          	sb	a1,7(a4)
     27a:	00b70323          	sb	a1,6(a4)
     27e:	00b702a3          	sb	a1,5(a4)
     282:	00b70223          	sb	a1,4(a4)
     286:	00b701a3          	sb	a1,3(a4)
     28a:	00b70123          	sb	a1,2(a4)
     28e:	00b700a3          	sb	a1,1(a4)
     292:	00b70023          	sb	a1,0(a4)
     296:	8082                	ret
     298:	0ff5f593          	andi	a1,a1,255
     29c:	00859693          	slli	a3,a1,0x8
     2a0:	8dd5                	or	a1,a1,a3
     2a2:	01059693          	slli	a3,a1,0x10
     2a6:	8dd5                	or	a1,a1,a3
     2a8:	b761                	j	230 <memset+0x10>
     2aa:	00279693          	slli	a3,a5,0x2
     2ae:	00000297          	auipc	t0,0x0
     2b2:	9696                	add	a3,a3,t0
     2b4:	8286                	mv	t0,ra
     2b6:	fa8680e7          	jalr	-88(a3)
     2ba:	8096                	mv	ra,t0
     2bc:	17c1                	addi	a5,a5,-16
     2be:	8f1d                	sub	a4,a4,a5
     2c0:	963e                	add	a2,a2,a5
     2c2:	f8c374e3          	bgeu	t1,a2,24a <memset+0x2a>
     2c6:	b7a5                	j	22e <memset+0xe>

000002c8 <mui_task_draw>:
     2c8:	f29ff2ef          	jal	t0,1f0 <__riscv_save_0>
     2cc:	5d1c                	lw	a5,56(a0)
     2ce:	4585                	li	a1,1
     2d0:	479c                	lw	a5,8(a5)
     2d2:	9782                	jalr	a5
     2d4:	4501                	li	a0,0
     2d6:	bf3d                	j	214 <__riscv_restore_0>

000002d8 <mui_task_form_start>:
     2d8:	f19ff2ef          	jal	t0,1f0 <__riscv_save_0>
     2dc:	5d1c                	lw	a5,56(a0)
     2de:	4589                	li	a1,2
     2e0:	479c                	lw	a5,8(a5)
     2e2:	9782                	jalr	a5
     2e4:	4501                	li	a0,0
     2e6:	b73d                	j	214 <__riscv_restore_0>

000002e8 <mui_task_form_end>:
     2e8:	f09ff2ef          	jal	t0,1f0 <__riscv_save_0>
     2ec:	5d1c                	lw	a5,56(a0)
     2ee:	458d                	li	a1,3
     2f0:	479c                	lw	a5,8(a5)
     2f2:	9782                	jalr	a5
     2f4:	4501                	li	a0,0
     2f6:	bf39                	j	214 <__riscv_restore_0>

000002f8 <mui_uif_is_cursor_selectable.isra.0>:
     2f8:	00254503          	lbu	a0,2(a0)
     2fc:	8905                	andi	a0,a0,1
     2fe:	8082                	ret

00000300 <mui_task_find_first_cursor_uif>:
     300:	ef1ff2ef          	jal	t0,1f0 <__riscv_save_0>
     304:	842a                	mv	s0,a0
     306:	5d08                	lw	a0,56(a0)
     308:	3fc5                	jal	2f8 <mui_uif_is_cursor_selectable.isra.0>
     30a:	c501                	beqz	a0,312 <mui_task_find_first_cursor_uif+0x12>
     30c:	585c                	lw	a5,52(s0)
     30e:	4505                	li	a0,1
     310:	d47c                	sw	a5,108(s0)
     312:	b709                	j	214 <__riscv_restore_0>

00000314 <mui_task_find_last_cursor_uif>:
     314:	eddff2ef          	jal	t0,1f0 <__riscv_save_0>
     318:	842a                	mv	s0,a0
     31a:	5d08                	lw	a0,56(a0)
     31c:	3ff1                	jal	2f8 <mui_uif_is_cursor_selectable.isra.0>
     31e:	c119                	beqz	a0,324 <mui_task_find_last_cursor_uif+0x10>
     320:	585c                	lw	a5,52(s0)
     322:	d47c                	sw	a5,108(s0)
     324:	4501                	li	a0,0
     326:	b5fd                	j	214 <__riscv_restore_0>

00000328 <mui_task_find_prev_cursor_uif>:
     328:	ec9ff2ef          	jal	t0,1f0 <__riscv_save_0>
     32c:	842a                	mv	s0,a0
     32e:	5d08                	lw	a0,56(a0)
     330:	37e1                	jal	2f8 <mui_uif_is_cursor_selectable.isra.0>
     332:	c901                	beqz	a0,342 <mui_task_find_prev_cursor_uif+0x1a>
     334:	585c                	lw	a5,52(s0)
     336:	4858                	lw	a4,20(s0)
     338:	00e79663          	bne	a5,a4,344 <mui_task_find_prev_cursor_uif+0x1c>
     33c:	543c                	lw	a5,104(s0)
     33e:	4505                	li	a0,1
     340:	d47c                	sw	a5,108(s0)
     342:	bdc9                	j	214 <__riscv_restore_0>
     344:	d43c                	sw	a5,104(s0)
     346:	4501                	li	a0,0
     348:	bfed                	j	342 <mui_task_find_prev_cursor_uif+0x1a>

0000034a <mui_task_find_next_cursor_uif>:
     34a:	ea7ff2ef          	jal	t0,1f0 <__riscv_save_0>
     34e:	842a                	mv	s0,a0
     350:	5d08                	lw	a0,56(a0)
     352:	375d                	jal	2f8 <mui_uif_is_cursor_selectable.isra.0>
     354:	c901                	beqz	a0,364 <mui_task_find_next_cursor_uif+0x1a>
     356:	543c                	lw	a5,104(s0)
     358:	5858                	lw	a4,52(s0)
     35a:	c791                	beqz	a5,366 <mui_task_find_next_cursor_uif+0x1c>
     35c:	d478                	sw	a4,108(s0)
     35e:	06042423          	sw	zero,104(s0)
     362:	4505                	li	a0,1
     364:	bd45                	j	214 <__riscv_restore_0>
     366:	485c                	lw	a5,20(s0)
     368:	4501                	li	a0,0
     36a:	fee79de3          	bne	a5,a4,364 <mui_task_find_next_cursor_uif+0x1a>
     36e:	d43c                	sw	a5,104(s0)
     370:	bfd5                	j	364 <mui_task_find_next_cursor_uif+0x1a>

00000372 <mui_get_fds_char>:
     372:	00054503          	lbu	a0,0(a0)
     376:	8082                	ret

00000378 <mui_fds_get_cmd_size_without_text>:
     378:	e79ff2ef          	jal	t0,1f0 <__riscv_save_0>
     37c:	3fdd                	jal	372 <mui_get_fds_char>
     37e:	0df57793          	andi	a5,a0,223
     382:	04700713          	li	a4,71
     386:	4511                	li	a0,4
     388:	02e78363          	beq	a5,a4,3ae <mui_fds_get_cmd_size_without_text+0x36>
     38c:	02f76b63          	bltu	a4,a5,3c2 <mui_fds_get_cmd_size_without_text+0x4a>
     390:	04200713          	li	a4,66
     394:	4515                	li	a0,5
     396:	00e78c63          	beq	a5,a4,3ae <mui_fds_get_cmd_size_without_text+0x36>
     39a:	00f76b63          	bltu	a4,a5,3b0 <mui_fds_get_cmd_size_without_text+0x38>
     39e:	4501                	li	a0,0
     3a0:	c799                	beqz	a5,3ae <mui_fds_get_cmd_size_without_text+0x36>
     3a2:	04100713          	li	a4,65
     3a6:	4519                	li	a0,6
     3a8:	00e78363          	beq	a5,a4,3ae <mui_fds_get_cmd_size_without_text+0x36>
     3ac:	4505                	li	a0,1
     3ae:	b59d                	j	214 <__riscv_restore_0>
     3b0:	04400713          	li	a4,68
     3b4:	450d                	li	a0,3
     3b6:	fee78ce3          	beq	a5,a4,3ae <mui_fds_get_cmd_size_without_text+0x36>
     3ba:	04600713          	li	a4,70
     3be:	4515                	li	a0,5
     3c0:	b7e5                	j	3a8 <mui_fds_get_cmd_size_without_text+0x30>
     3c2:	05400713          	li	a4,84
     3c6:	4519                	li	a0,6
     3c8:	fee783e3          	beq	a5,a4,3ae <mui_fds_get_cmd_size_without_text+0x36>
     3cc:	00f76b63          	bltu	a4,a5,3e2 <mui_fds_get_cmd_size_without_text+0x6a>
     3d0:	04c00713          	li	a4,76
     3d4:	450d                	li	a0,3
     3d6:	fce78ce3          	beq	a5,a4,3ae <mui_fds_get_cmd_size_without_text+0x36>
     3da:	05300713          	li	a4,83
     3de:	4509                	li	a0,2
     3e0:	b7e1                	j	3a8 <mui_fds_get_cmd_size_without_text+0x30>
     3e2:	05500713          	li	a4,85
     3e6:	4509                	li	a0,2
     3e8:	fce783e3          	beq	a5,a4,3ae <mui_fds_get_cmd_size_without_text+0x36>
     3ec:	05a00713          	li	a4,90
     3f0:	450d                	li	a0,3
     3f2:	bf5d                	j	3a8 <mui_fds_get_cmd_size_without_text+0x30>

000003f4 <mui_fds_get_cmd_size>:
     3f4:	de3ff2ef          	jal	t0,1d6 <__riscv_save_4>
     3f8:	89aa                	mv	s3,a0
     3fa:	852e                	mv	a0,a1
     3fc:	84ae                	mv	s1,a1
     3fe:	3fad                	jal	378 <mui_fds_get_cmd_size_without_text>
     400:	8a2a                	mv	s4,a0
     402:	8526                	mv	a0,s1
     404:	37bd                	jal	372 <mui_get_fds_char>
     406:	fbf50513          	addi	a0,a0,-65
     40a:	02098e23          	sb	zero,60(s3)
     40e:	0ff57793          	andi	a5,a0,255
     412:	4765                	li	a4,25
     414:	00f76a63          	bltu	a4,a5,428 <mui_fds_get_cmd_size+0x34>
     418:	02140537          	lui	a0,0x2140
     41c:	02150513          	addi	a0,a0,33 # 2140021 <_data_lma+0x213b309>
     420:	00f55533          	srl	a0,a0,a5
     424:	8905                	andi	a0,a0,1
     426:	e139                	bnez	a0,46c <mui_fds_get_cmd_size+0x78>
     428:	94d2                	add	s1,s1,s4
     42a:	8526                	mv	a0,s1
     42c:	3799                	jal	372 <mui_get_fds_char>
     42e:	02a983a3          	sb	a0,39(s3)
     432:	8aaa                	mv	s5,a0
     434:	4401                	li	s0,0
     436:	c915                	beqz	a0,46a <mui_fds_get_cmd_size+0x76>
     438:	00148413          	addi	s0,s1,1
     43c:	4901                	li	s2,0
     43e:	02800b13          	li	s6,40
     442:	8522                	mv	a0,s0
     444:	373d                	jal	372 <mui_get_fds_char>
     446:	87ca                	mv	a5,s2
     448:	cd09                	beqz	a0,462 <mui_fds_get_cmd_size+0x6e>
     44a:	0405                	addi	s0,s0,1
     44c:	00aa8b63          	beq	s5,a0,462 <mui_fds_get_cmd_size+0x6e>
     450:	ff2b69e3          	bltu	s6,s2,442 <mui_fds_get_cmd_size+0x4e>
     454:	0905                	addi	s2,s2,1
     456:	97ce                	add	a5,a5,s3
     458:	0ff97913          	andi	s2,s2,255
     45c:	02a78e23          	sb	a0,60(a5)
     460:	b7cd                	j	442 <mui_fds_get_cmd_size+0x4e>
     462:	994e                	add	s2,s2,s3
     464:	02090e23          	sb	zero,60(s2)
     468:	8c05                	sub	s0,s0,s1
     46a:	9a22                	add	s4,s4,s0
     46c:	8552                	mv	a0,s4
     46e:	bb71                	j	20a <__riscv_restore_4>

00000470 <mui_prepare_current_field>:
     470:	d81ff2ef          	jal	t0,1f0 <__riscv_save_0>
     474:	594c                	lw	a1,52(a0)
     476:	842a                	mv	s0,a0
     478:	02052c23          	sw	zero,56(a0)
     47c:	020506a3          	sb	zero,45(a0)
     480:	020504a3          	sb	zero,41(a0)
     484:	02050523          	sb	zero,42(a0)
     488:	02050723          	sb	zero,46(a0)
     48c:	37a5                	jal	3f4 <mui_fds_get_cmd_size>
     48e:	03442903          	lw	s2,52(s0)
     492:	d808                	sw	a0,48(s0)
     494:	854a                	mv	a0,s2
     496:	3df1                	jal	372 <mui_get_fds_char>
     498:	0df57493          	andi	s1,a0,223
     49c:	02a40523          	sb	a0,42(s0)
     4a0:	02940423          	sb	s1,40(s0)
     4a4:	05500793          	li	a5,85
     4a8:	00f49463          	bne	s1,a5,4b0 <mui_prepare_current_field+0x40>
     4ac:	4501                	li	a0,0
     4ae:	b39d                	j	214 <__riscv_restore_0>
     4b0:	dcf5                	beqz	s1,4ac <mui_prepare_current_field+0x3c>
     4b2:	485c                	lw	a5,20(s0)
     4b4:	00f91863          	bne	s2,a5,4c4 <mui_prepare_current_field+0x54>
     4b8:	02d44783          	lbu	a5,45(s0)
     4bc:	0017e793          	ori	a5,a5,1
     4c0:	02f406a3          	sb	a5,45(s0)
     4c4:	4c1c                	lw	a5,24(s0)
     4c6:	00f91863          	bne	s2,a5,4d6 <mui_prepare_current_field+0x66>
     4ca:	02d44783          	lbu	a5,45(s0)
     4ce:	0027e793          	ori	a5,a5,2
     4d2:	02f406a3          	sb	a5,45(s0)
     4d6:	fbf48793          	addi	a5,s1,-65
     4da:	0ff7f713          	andi	a4,a5,255
     4de:	47cd                	li	a5,19
     4e0:	00190513          	addi	a0,s2,1
     4e4:	04e7f863          	bgeu	a5,a4,534 <mui_prepare_current_field+0xc4>
     4e8:	04400793          	li	a5,68
     4ec:	08f49c63          	bne	s1,a5,584 <mui_prepare_current_field+0x114>
     4f0:	3549                	jal	372 <mui_get_fds_char>
     4f2:	02a404a3          	sb	a0,41(s0)
     4f6:	00290513          	addi	a0,s2,2
     4fa:	3da5                	jal	372 <mui_get_fds_char>
     4fc:	02a40523          	sb	a0,42(s0)
     500:	02944583          	lbu	a1,41(s0)
     504:	02a44503          	lbu	a0,42(s0)
     508:	4450                	lw	a2,12(s0)
     50a:	4681                	li	a3,0
     50c:	4831                	li	a6,12
     50e:	f8c68fe3          	beq	a3,a2,4ac <mui_prepare_current_field+0x3c>
     512:	030687b3          	mul	a5,a3,a6
     516:	4418                	lw	a4,8(s0)
     518:	97ba                	add	a5,a5,a4
     51a:	0007c703          	lbu	a4,0(a5)
     51e:	0ab71563          	bne	a4,a1,5c8 <mui_prepare_current_field+0x158>
     522:	0017c703          	lbu	a4,1(a5)
     526:	0aa71163          	bne	a4,a0,5c8 <mui_prepare_current_field+0x158>
     52a:	f806c1e3          	bltz	a3,4ac <mui_prepare_current_field+0x3c>
     52e:	dc1c                	sw	a5,56(s0)
     530:	4505                	li	a0,1
     532:	bfb5                	j	4ae <mui_prepare_current_field+0x3e>
     534:	000807b7          	lui	a5,0x80
     538:	02378793          	addi	a5,a5,35 # 80023 <_data_lma+0x7b30b>
     53c:	00e7d7b3          	srl	a5,a5,a4
     540:	8b85                	andi	a5,a5,1
     542:	c7c9                	beqz	a5,5cc <mui_prepare_current_field+0x15c>
     544:	353d                	jal	372 <mui_get_fds_char>
     546:	02a404a3          	sb	a0,41(s0)
     54a:	00290513          	addi	a0,s2,2
     54e:	3515                	jal	372 <mui_get_fds_char>
     550:	02a40523          	sb	a0,42(s0)
     554:	00390513          	addi	a0,s2,3
     558:	3d29                	jal	372 <mui_get_fds_char>
     55a:	02a405a3          	sb	a0,43(s0)
     55e:	00490513          	addi	a0,s2,4
     562:	3d01                	jal	372 <mui_get_fds_char>
     564:	02a40623          	sb	a0,44(s0)
     568:	04100793          	li	a5,65
     56c:	00f48663          	beq	s1,a5,578 <mui_prepare_current_field+0x108>
     570:	05400793          	li	a5,84
     574:	f8f496e3          	bne	s1,a5,500 <mui_prepare_current_field+0x90>
     578:	00590513          	addi	a0,s2,5
     57c:	3bdd                	jal	372 <mui_get_fds_char>
     57e:	02a40723          	sb	a0,46(s0)
     582:	bfbd                	j	500 <mui_prepare_current_field+0x90>
     584:	05a00793          	li	a5,90
     588:	f6f484e3          	beq	s1,a5,4f0 <mui_prepare_current_field+0x80>
     58c:	05300793          	li	a5,83
     590:	00f49563          	bne	s1,a5,59a <mui_prepare_current_field+0x12a>
     594:	029404a3          	sb	s1,41(s0)
     598:	b78d                	j	4fa <mui_prepare_current_field+0x8a>
     59a:	02e00793          	li	a5,46
     59e:	02f404a3          	sb	a5,41(s0)
     5a2:	3bc1                	jal	372 <mui_get_fds_char>
     5a4:	02a405a3          	sb	a0,43(s0)
     5a8:	00290513          	addi	a0,s2,2
     5ac:	33d9                	jal	372 <mui_get_fds_char>
     5ae:	02a40623          	sb	a0,44(s0)
     5b2:	04700793          	li	a5,71
     5b6:	00f48663          	beq	s1,a5,5c2 <mui_prepare_current_field+0x152>
     5ba:	04d00793          	li	a5,77
     5be:	f4f491e3          	bne	s1,a5,500 <mui_prepare_current_field+0x90>
     5c2:	00390513          	addi	a0,s2,3
     5c6:	bf5d                	j	57c <mui_prepare_current_field+0x10c>
     5c8:	0685                	addi	a3,a3,1
     5ca:	b791                	j	50e <mui_prepare_current_field+0x9e>
     5cc:	04400793          	li	a5,68
     5d0:	bf65                	j	588 <mui_prepare_current_field+0x118>

000005d2 <mui_send_cursor_msg>:
     5d2:	495c                	lw	a5,20(a0)
     5d4:	e791                	bnez	a5,5e0 <mui_send_cursor_msg+0xe>
     5d6:	4501                	li	a0,0
     5d8:	8082                	ret
     5da:	4501                	li	a0,0
     5dc:	0141                	addi	sp,sp,16
     5de:	b91d                	j	214 <__riscv_restore_0>
     5e0:	c11ff2ef          	jal	t0,1f0 <__riscv_save_0>
     5e4:	1141                	addi	sp,sp,-16
     5e6:	d95c                	sw	a5,52(a0)
     5e8:	c62e                	sw	a1,12(sp)
     5ea:	842a                	mv	s0,a0
     5ec:	3551                	jal	470 <mui_prepare_current_field>
     5ee:	45b2                	lw	a1,12(sp)
     5f0:	d56d                	beqz	a0,5da <mui_send_cursor_msg+0x8>
     5f2:	5c1c                	lw	a5,56(s0)
     5f4:	8522                	mv	a0,s0
     5f6:	479c                	lw	a5,8(a5)
     5f8:	9782                	jalr	a5
     5fa:	b7cd                	j	5dc <mui_send_cursor_msg+0xa>

000005fc <mui_send_cursor_enter_msg>:
     5fc:	bf5ff2ef          	jal	t0,1f0 <__riscv_save_0>
     600:	4591                	li	a1,4
     602:	02050323          	sb	zero,38(a0)
     606:	37f1                	jal	5d2 <mui_send_cursor_msg>
     608:	b131                	j	214 <__riscv_restore_0>

0000060a <mui_inner_loop_over_form>:
     60a:	be7ff2ef          	jal	t0,1f0 <__riscv_save_0>
     60e:	84ae                	mv	s1,a1
     610:	594c                	lw	a1,52(a0)
     612:	842a                	mv	s0,a0
     614:	05500913          	li	s2,85
     618:	3bf1                	jal	3f4 <mui_fds_get_cmd_size>
     61a:	585c                	lw	a5,52(s0)
     61c:	953e                	add	a0,a0,a5
     61e:	d848                	sw	a0,52(s0)
     620:	5848                	lw	a0,52(s0)
     622:	3b81                	jal	372 <mui_get_fds_char>
     624:	01250e63          	beq	a0,s2,640 <mui_inner_loop_over_form+0x36>
     628:	cd01                	beqz	a0,640 <mui_inner_loop_over_form+0x36>
     62a:	8522                	mv	a0,s0
     62c:	3591                	jal	470 <mui_prepare_current_field>
     62e:	e511                	bnez	a0,63a <mui_inner_loop_over_form+0x30>
     630:	585c                	lw	a5,52(s0)
     632:	5818                	lw	a4,48(s0)
     634:	97ba                	add	a5,a5,a4
     636:	d85c                	sw	a5,52(s0)
     638:	b7e5                	j	620 <mui_inner_loop_over_form+0x16>
     63a:	8522                	mv	a0,s0
     63c:	9482                	jalr	s1
     63e:	d96d                	beqz	a0,630 <mui_inner_loop_over_form+0x26>
     640:	bed1                	j	214 <__riscv_restore_0>

00000642 <mui_loop_over_form>:
     642:	4918                	lw	a4,16(a0)
     644:	cb11                	beqz	a4,658 <mui_loop_over_form+0x16>
     646:	babff2ef          	jal	t0,1f0 <__riscv_save_0>
     64a:	d958                	sw	a4,52(a0)
     64c:	06052623          	sw	zero,108(a0)
     650:	06052423          	sw	zero,104(a0)
     654:	3f5d                	jal	60a <mui_inner_loop_over_form>
     656:	be7d                	j	214 <__riscv_restore_0>
     658:	8082                	ret

0000065a <mui_fds_next_token>:
     65a:	b7dff2ef          	jal	t0,1d6 <__riscv_save_4>
     65e:	84aa                	mv	s1,a0
     660:	4401                	li	s0,0
     662:	07c00993          	li	s3,124
     666:	02800a13          	li	s4,40
     66a:	01c4a903          	lw	s2,28(s1)
     66e:	854a                	mv	a0,s2
     670:	3309                	jal	372 <mui_get_fds_char>
     672:	87a2                	mv	a5,s0
     674:	c911                	beqz	a0,688 <mui_fds_next_token+0x2e>
     676:	0274c703          	lbu	a4,39(s1)
     67a:	00a70763          	beq	a4,a0,688 <mui_fds_next_token+0x2e>
     67e:	0905                	addi	s2,s2,1
     680:	01351a63          	bne	a0,s3,694 <mui_fds_next_token+0x3a>
     684:	0124ae23          	sw	s2,28(s1)
     688:	94a2                	add	s1,s1,s0
     68a:	02048e23          	sb	zero,60(s1)
     68e:	00803533          	snez	a0,s0
     692:	bea5                	j	20a <__riscv_restore_4>
     694:	008a6863          	bltu	s4,s0,6a4 <mui_fds_next_token+0x4a>
     698:	0405                	addi	s0,s0,1
     69a:	97a6                	add	a5,a5,s1
     69c:	0ff47413          	andi	s0,s0,255
     6a0:	02a78e23          	sb	a0,60(a5)
     6a4:	0124ae23          	sw	s2,28(s1)
     6a8:	b7c9                	j	66a <mui_fds_next_token+0x10>

000006aa <mui_fds_first_token>:
     6aa:	b47ff2ef          	jal	t0,1f0 <__riscv_save_0>
     6ae:	5940                	lw	s0,52(a0)
     6b0:	84aa                	mv	s1,a0
     6b2:	cd40                	sw	s0,28(a0)
     6b4:	8522                	mv	a0,s0
     6b6:	31c9                	jal	378 <mui_fds_get_cmd_size_without_text>
     6b8:	942a                	add	s0,s0,a0
     6ba:	ccc0                	sw	s0,28(s1)
     6bc:	8522                	mv	a0,s0
     6be:	3955                	jal	372 <mui_get_fds_char>
     6c0:	0405                	addi	s0,s0,1
     6c2:	02a483a3          	sb	a0,39(s1)
     6c6:	ccc0                	sw	s0,28(s1)
     6c8:	8526                	mv	a0,s1
     6ca:	3f41                	jal	65a <mui_fds_next_token>
     6cc:	b6a1                	j	214 <__riscv_restore_0>

000006ce <mui_fds_get_nth_token>:
     6ce:	b23ff2ef          	jal	t0,1f0 <__riscv_save_0>
     6d2:	84aa                	mv	s1,a0
     6d4:	842e                	mv	s0,a1
     6d6:	3fd1                	jal	6aa <mui_fds_first_token>
     6d8:	c901                	beqz	a0,6e8 <mui_fds_get_nth_token+0x1a>
     6da:	c809                	beqz	s0,6ec <mui_fds_get_nth_token+0x1e>
     6dc:	147d                	addi	s0,s0,-1
     6de:	8526                	mv	a0,s1
     6e0:	0ff47413          	andi	s0,s0,255
     6e4:	3f9d                	jal	65a <mui_fds_next_token>
     6e6:	bfcd                	j	6d8 <mui_fds_get_nth_token+0xa>
     6e8:	4501                	li	a0,0
     6ea:	b62d                	j	214 <__riscv_restore_0>
     6ec:	4505                	li	a0,1
     6ee:	bff5                	j	6ea <mui_fds_get_nth_token+0x1c>

000006f0 <mui_fds_get_token_cnt>:
     6f0:	b01ff2ef          	jal	t0,1f0 <__riscv_save_0>
     6f4:	84aa                	mv	s1,a0
     6f6:	3f55                	jal	6aa <mui_fds_first_token>
     6f8:	842a                	mv	s0,a0
     6fa:	c901                	beqz	a0,70a <mui_fds_get_token_cnt+0x1a>
     6fc:	4401                	li	s0,0
     6fe:	0405                	addi	s0,s0,1
     700:	8526                	mv	a0,s1
     702:	0ff47413          	andi	s0,s0,255
     706:	3f91                	jal	65a <mui_fds_next_token>
     708:	f97d                	bnez	a0,6fe <mui_fds_get_token_cnt+0xe>
     70a:	8522                	mv	a0,s0
     70c:	b621                	j	214 <__riscv_restore_0>

0000070e <mui_Init>:
     70e:	ae3ff2ef          	jal	t0,1f0 <__riscv_save_0>
     712:	1141                	addi	sp,sp,-16
     714:	842a                	mv	s0,a0
     716:	84ae                	mv	s1,a1
     718:	8932                	mv	s2,a2
     71a:	4581                	li	a1,0
     71c:	07800613          	li	a2,120
     720:	0541                	addi	a0,a0,16
     722:	c636                	sw	a3,12(sp)
     724:	c43a                	sw	a4,8(sp)
     726:	3ced                	jal	220 <memset>
     728:	46b2                	lw	a3,12(sp)
     72a:	4722                	lw	a4,8(sp)
     72c:	57fd                	li	a5,-1
     72e:	01242223          	sw	s2,4(s0)
     732:	c414                	sw	a3,8(s0)
     734:	c458                	sw	a4,12(s0)
     736:	c004                	sw	s1,0(s0)
     738:	06f40e23          	sb	a5,124(s0)
     73c:	0141                	addi	sp,sp,16
     73e:	bcd9                	j	214 <__riscv_restore_0>

00000740 <mui_Draw>:
     740:	ab1ff2ef          	jal	t0,1f0 <__riscv_save_0>
     744:	000005b7          	lui	a1,0x0
     748:	2c858593          	addi	a1,a1,712 # 2c8 <mui_task_draw>
     74c:	3ddd                	jal	642 <mui_loop_over_form>
     74e:	b4d9                	j	214 <__riscv_restore_0>

00000750 <mui_GetSelectableFieldTextOption>:
     750:	aa1ff2ef          	jal	t0,1f0 <__riscv_save_0>
     754:	842a                	mv	s0,a0
     756:	cd81                	beqz	a1,76e <mui_GetSelectableFieldTextOption+0x1e>
     758:	03452903          	lw	s2,52(a0)
     75c:	5904                	lw	s1,48(a0)
     75e:	87ae                	mv	a5,a1
     760:	d95c                	sw	a5,52(a0)
     762:	85b2                	mv	a1,a2
     764:	37ad                	jal	6ce <mui_fds_get_nth_token>
     766:	03242a23          	sw	s2,52(s0)
     76a:	d804                	sw	s1,48(s0)
     76c:	b465                	j	214 <__riscv_restore_0>
     76e:	02050e23          	sb	zero,60(a0)
     772:	4501                	li	a0,0
     774:	bfe5                	j	76c <mui_GetSelectableFieldTextOption+0x1c>

00000776 <mui_GetSelectableFieldOptionCnt>:
     776:	a7bff2ef          	jal	t0,1f0 <__riscv_save_0>
     77a:	842a                	mv	s0,a0
     77c:	c991                	beqz	a1,790 <mui_GetSelectableFieldOptionCnt+0x1a>
     77e:	03452903          	lw	s2,52(a0)
     782:	5904                	lw	s1,48(a0)
     784:	d94c                	sw	a1,52(a0)
     786:	37ad                	jal	6f0 <mui_fds_get_token_cnt>
     788:	03242a23          	sw	s2,52(s0)
     78c:	d804                	sw	s1,48(s0)
     78e:	b459                	j	214 <__riscv_restore_0>
     790:	02050e23          	sb	zero,60(a0)
     794:	4501                	li	a0,0
     796:	bfe5                	j	78e <mui_GetSelectableFieldOptionCnt+0x18>

00000798 <mui_LeaveForm>:
     798:	491c                	lw	a5,16(a0)
     79a:	c38d                	beqz	a5,7bc <mui_LeaveForm+0x24>
     79c:	a55ff2ef          	jal	t0,1f0 <__riscv_save_0>
     7a0:	45a1                	li	a1,8
     7a2:	842a                	mv	s0,a0
     7a4:	353d                	jal	5d2 <mui_send_cursor_msg>
     7a6:	000005b7          	lui	a1,0x0
     7aa:	00042a23          	sw	zero,20(s0)
     7ae:	2e858593          	addi	a1,a1,744 # 2e8 <mui_task_form_end>
     7b2:	8522                	mv	a0,s0
     7b4:	3579                	jal	642 <mui_loop_over_form>
     7b6:	00042823          	sw	zero,16(s0)
     7ba:	bca9                	j	214 <__riscv_restore_0>
     7bc:	8082                	ret

000007be <mui_SaveFormWithCursorPosition>:
     7be:	4914                	lw	a3,16(a0)
     7c0:	ceb1                	beqz	a3,81c <__stack_size+0x1c>
     7c2:	a2fff2ef          	jal	t0,1f0 <__riscv_save_0>
     7c6:	07c50703          	lb	a4,124(a0)
     7ca:	4789                	li	a5,2
     7cc:	04e7c663          	blt	a5,a4,818 <__stack_size+0x18>
     7d0:	0705                	addi	a4,a4,1
     7d2:	06e50e23          	sb	a4,124(a0)
     7d6:	495c                	lw	a5,20(a0)
     7d8:	07c50903          	lb	s2,124(a0)
     7dc:	842a                	mv	s0,a0
     7de:	dd3c                	sw	a5,120(a0)
     7e0:	00168513          	addi	a0,a3,1
     7e4:	944a                	add	s0,s0,s2
     7e6:	84ae                	mv	s1,a1
     7e8:	3669                	jal	372 <mui_get_fds_char>
     7ea:	06a40823          	sb	a0,112(s0)
     7ee:	06940a23          	sb	s1,116(s0)
     7f2:	b40d                	j	214 <__riscv_restore_0>
     7f4:	00178613          	addi	a2,a5,1
     7f8:	00c50833          	add	a6,a0,a2
     7fc:	07084883          	lbu	a7,112(a6)
     800:	97aa                	add	a5,a5,a0
     802:	07178823          	sb	a7,112(a5)
     806:	07484803          	lbu	a6,116(a6)
     80a:	07078a23          	sb	a6,116(a5)
     80e:	0ff67793          	andi	a5,a2,255
     812:	fee7c1e3          	blt	a5,a4,7f4 <mui_SaveFormWithCursorPosition+0x36>
     816:	b7c1                	j	7d6 <mui_SaveFormWithCursorPosition+0x18>
     818:	4781                	li	a5,0
     81a:	bfe5                	j	812 <__stack_size+0x12>
     81c:	8082                	ret

0000081e <mui_SaveCursorPosition>:
     81e:	9d3ff2ef          	jal	t0,1f0 <__riscv_save_0>
     822:	842a                	mv	s0,a0
     824:	4908                	lw	a0,16(a0)
     826:	1141                	addi	sp,sp,-16
     828:	c62e                	sw	a1,12(sp)
     82a:	0505                	addi	a0,a0,1
     82c:	3699                	jal	372 <mui_get_fds_char>
     82e:	45b2                	lw	a1,12(sp)
     830:	4781                	li	a5,0
     832:	4711                	li	a4,4
     834:	00f40633          	add	a2,s0,a5
     838:	07e64603          	lbu	a2,126(a2)
     83c:	0ff7f693          	andi	a3,a5,255
     840:	00a61e63          	bne	a2,a0,85c <mui_SaveCursorPosition+0x3e>
     844:	06d40ea3          	sb	a3,125(s0)
     848:	07d44783          	lbu	a5,125(s0)
     84c:	943e                	add	s0,s0,a5
     84e:	06a40f23          	sb	a0,126(s0)
     852:	08b40123          	sb	a1,130(s0)
     856:	0141                	addi	sp,sp,16
     858:	9bdff06f          	j	214 <__riscv_restore_0>
     85c:	0785                	addi	a5,a5,1
     85e:	fce79be3          	bne	a5,a4,834 <mui_SaveCursorPosition+0x16>
     862:	07d44783          	lbu	a5,125(s0)
     866:	470d                	li	a4,3
     868:	0785                	addi	a5,a5,1
     86a:	0ff7f793          	andi	a5,a5,255
     86e:	00f76563          	bltu	a4,a5,878 <mui_SaveCursorPosition+0x5a>
     872:	06f40ea3          	sb	a5,125(s0)
     876:	bfc9                	j	848 <mui_SaveCursorPosition+0x2a>
     878:	06040ea3          	sb	zero,125(s0)
     87c:	b7f1                	j	848 <mui_SaveCursorPosition+0x2a>

0000087e <mui_NextField>:
     87e:	959ff2ef          	jal	t0,1d6 <__riscv_save_4>
     882:	842a                	mv	s0,a0
     884:	00000937          	lui	s2,0x0
     888:	000009b7          	lui	s3,0x0
     88c:	0ff00493          	li	s1,255
     890:	45ad                	li	a1,11
     892:	8522                	mv	a0,s0
     894:	3b3d                	jal	5d2 <mui_send_cursor_msg>
     896:	e50d                	bnez	a0,8c0 <mui_NextField+0x42>
     898:	45a1                	li	a1,8
     89a:	8522                	mv	a0,s0
     89c:	3b1d                	jal	5d2 <mui_send_cursor_msg>
     89e:	34a90593          	addi	a1,s2,842 # 34a <mui_task_find_next_cursor_uif>
     8a2:	8522                	mv	a0,s0
     8a4:	3b79                	jal	642 <mui_loop_over_form>
     8a6:	547c                	lw	a5,108(s0)
     8a8:	c85c                	sw	a5,20(s0)
     8aa:	e799                	bnez	a5,8b8 <mui_NextField+0x3a>
     8ac:	30098593          	addi	a1,s3,768 # 300 <mui_task_find_first_cursor_uif>
     8b0:	8522                	mv	a0,s0
     8b2:	3b41                	jal	642 <mui_loop_over_form>
     8b4:	547c                	lw	a5,108(s0)
     8b6:	c85c                	sw	a5,20(s0)
     8b8:	8522                	mv	a0,s0
     8ba:	3389                	jal	5fc <mui_send_cursor_enter_msg>
     8bc:	fc950ae3          	beq	a0,s1,890 <mui_NextField+0x12>
     8c0:	94bff06f          	j	20a <__riscv_restore_4>

000008c4 <mui_EnterForm>:
     8c4:	92dff2ef          	jal	t0,1f0 <__riscv_save_0>
     8c8:	1141                	addi	sp,sp,-16
     8ca:	842a                	mv	s0,a0
     8cc:	84b2                	mv	s1,a2
     8ce:	c62e                	sw	a1,12(sp)
     8d0:	35e1                	jal	798 <mui_LeaveForm>
     8d2:	45b2                	lw	a1,12(sp)
     8d4:	8522                	mv	a0,s0
     8d6:	00042c23          	sw	zero,24(s0)
     8da:	c80c                	sw	a1,16(s0)
     8dc:	000005b7          	lui	a1,0x0
     8e0:	2d858593          	addi	a1,a1,728 # 2d8 <mui_task_form_start>
     8e4:	00042a23          	sw	zero,20(s0)
     8e8:	02042023          	sw	zero,32(s0)
     8ec:	02040223          	sb	zero,36(s0)
     8f0:	3b89                	jal	642 <mui_loop_over_form>
     8f2:	000005b7          	lui	a1,0x0
     8f6:	30058593          	addi	a1,a1,768 # 300 <mui_task_find_first_cursor_uif>
     8fa:	8522                	mv	a0,s0
     8fc:	3399                	jal	642 <mui_loop_over_form>
     8fe:	547c                	lw	a5,108(s0)
     900:	c85c                	sw	a5,20(s0)
     902:	e891                	bnez	s1,916 <mui_EnterForm+0x52>
     904:	0ff00493          	li	s1,255
     908:	8522                	mv	a0,s0
     90a:	39cd                	jal	5fc <mui_send_cursor_enter_msg>
     90c:	00950b63          	beq	a0,s1,922 <mui_EnterForm+0x5e>
     910:	0141                	addi	sp,sp,16
     912:	903ff06f          	j	214 <__riscv_restore_0>
     916:	8522                	mv	a0,s0
     918:	14fd                	addi	s1,s1,-1
     91a:	3795                	jal	87e <mui_NextField>
     91c:	0ff4f493          	andi	s1,s1,255
     920:	b7cd                	j	902 <mui_EnterForm+0x3e>
     922:	8522                	mv	a0,s0
     924:	3fa9                	jal	87e <mui_NextField>
     926:	b7cd                	j	908 <mui_EnterForm+0x44>

00000928 <mui_GotoForm>:
     928:	8afff2ef          	jal	t0,1d6 <__riscv_save_4>
     92c:	4140                	lw	s0,4(a0)
     92e:	84aa                	mv	s1,a0
     930:	89ae                	mv	s3,a1
     932:	8932                	mv	s2,a2
     934:	05500a13          	li	s4,85
     938:	8522                	mv	a0,s0
     93a:	a39ff0ef          	jal	ra,372 <mui_get_fds_char>
     93e:	c50d                	beqz	a0,968 <mui_GotoForm+0x40>
     940:	01451863          	bne	a0,s4,950 <mui_GotoForm+0x28>
     944:	00140513          	addi	a0,s0,1
     948:	a2bff0ef          	jal	ra,372 <mui_get_fds_char>
     94c:	00a98763          	beq	s3,a0,95a <mui_GotoForm+0x32>
     950:	85a2                	mv	a1,s0
     952:	8526                	mv	a0,s1
     954:	3445                	jal	3f4 <mui_fds_get_cmd_size>
     956:	942a                	add	s0,s0,a0
     958:	b7c5                	j	938 <mui_GotoForm+0x10>
     95a:	4501                	li	a0,0
     95c:	c411                	beqz	s0,968 <mui_GotoForm+0x40>
     95e:	8526                	mv	a0,s1
     960:	864a                	mv	a2,s2
     962:	85a2                	mv	a1,s0
     964:	3785                	jal	8c4 <mui_EnterForm>
     966:	4505                	li	a0,1
     968:	8a3ff06f          	j	20a <__riscv_restore_4>

0000096c <mui_RestoreForm>:
     96c:	07c50703          	lb	a4,124(a0)
     970:	02074063          	bltz	a4,990 <mui_RestoreForm+0x24>
     974:	87dff2ef          	jal	t0,1f0 <__riscv_save_0>
     978:	00e506b3          	add	a3,a0,a4
     97c:	0706c583          	lbu	a1,112(a3)
     980:	0746c603          	lbu	a2,116(a3)
     984:	177d                	addi	a4,a4,-1
     986:	06e50e23          	sb	a4,124(a0)
     98a:	3f79                	jal	928 <mui_GotoForm>
     98c:	889ff06f          	j	214 <__riscv_restore_0>
     990:	4501                	li	a0,0
     992:	8082                	ret

00000994 <mui_GotoFormAutoCursorPosition>:
     994:	85dff2ef          	jal	t0,1f0 <__riscv_save_0>
     998:	07e54783          	lbu	a5,126(a0)
     99c:	4601                	li	a2,0
     99e:	00b79463          	bne	a5,a1,9a6 <mui_GotoFormAutoCursorPosition+0x12>
     9a2:	08254603          	lbu	a2,130(a0)
     9a6:	07f54783          	lbu	a5,127(a0)
     9aa:	00b79463          	bne	a5,a1,9b2 <mui_GotoFormAutoCursorPosition+0x1e>
     9ae:	08354603          	lbu	a2,131(a0)
     9b2:	3f9d                	jal	928 <mui_GotoForm>
     9b4:	861ff06f          	j	214 <__riscv_restore_0>

000009b8 <mui_PrevField>:
     9b8:	81fff2ef          	jal	t0,1d6 <__riscv_save_4>
     9bc:	842a                	mv	s0,a0
     9be:	00000937          	lui	s2,0x0
     9c2:	000009b7          	lui	s3,0x0
     9c6:	0ff00493          	li	s1,255
     9ca:	45b1                	li	a1,12
     9cc:	8522                	mv	a0,s0
     9ce:	3111                	jal	5d2 <mui_send_cursor_msg>
     9d0:	e50d                	bnez	a0,9fa <mui_PrevField+0x42>
     9d2:	45a1                	li	a1,8
     9d4:	8522                	mv	a0,s0
     9d6:	3ef5                	jal	5d2 <mui_send_cursor_msg>
     9d8:	32890593          	addi	a1,s2,808 # 328 <mui_task_find_prev_cursor_uif>
     9dc:	8522                	mv	a0,s0
     9de:	3195                	jal	642 <mui_loop_over_form>
     9e0:	547c                	lw	a5,108(s0)
     9e2:	c85c                	sw	a5,20(s0)
     9e4:	e799                	bnez	a5,9f2 <mui_PrevField+0x3a>
     9e6:	31498593          	addi	a1,s3,788 # 314 <mui_task_find_last_cursor_uif>
     9ea:	8522                	mv	a0,s0
     9ec:	3999                	jal	642 <mui_loop_over_form>
     9ee:	547c                	lw	a5,108(s0)
     9f0:	c85c                	sw	a5,20(s0)
     9f2:	8522                	mv	a0,s0
     9f4:	3121                	jal	5fc <mui_send_cursor_enter_msg>
     9f6:	fc950ae3          	beq	a0,s1,9ca <mui_PrevField+0x12>
     9fa:	811ff06f          	j	20a <__riscv_restore_4>

000009fe <mui_SendSelect>:
     9fe:	ff2ff2ef          	jal	t0,1f0 <__riscv_save_0>
     a02:	4595                	li	a1,5
     a04:	36f9                	jal	5d2 <mui_send_cursor_msg>
     a06:	80fff06f          	j	214 <__riscv_restore_0>

00000a0a <mui_u8g2_handle_scroll_next_prev_events>:
     a0a:	472d                	li	a4,11
     a0c:	87aa                	mv	a5,a0
     a0e:	02e54503          	lbu	a0,46(a0)
     a12:	02e58463          	beq	a1,a4,a3a <mui_u8g2_handle_scroll_next_prev_events+0x30>
     a16:	4731                	li	a4,12
     a18:	04e58363          	beq	a1,a4,a5e <mui_u8g2_handle_scroll_next_prev_events+0x54>
     a1c:	4711                	li	a4,4
     a1e:	06e59363          	bne	a1,a4,a84 <mui_u8g2_handle_scroll_next_prev_events+0x7a>
     a22:	c135                	beqz	a0,a86 <mui_u8g2_handle_scroll_next_prev_events+0x7c>
     a24:	0227d703          	lhu	a4,34(a5)
     a28:	953a                	add	a0,a0,a4
     a2a:	0207d703          	lhu	a4,32(a5)
     a2e:	00e52533          	slt	a0,a0,a4
     a32:	157d                	addi	a0,a0,-1
     a34:	0ff57513          	andi	a0,a0,255
     a38:	8082                	ret
     a3a:	0247c703          	lbu	a4,36(a5)
     a3e:	00150693          	addi	a3,a0,1
     a42:	4501                	li	a0,0
     a44:	04e69163          	bne	a3,a4,a86 <mui_u8g2_handle_scroll_next_prev_events+0x7c>
     a48:	0227d703          	lhu	a4,34(a5)
     a4c:	0207d603          	lhu	a2,32(a5)
     a50:	96ba                	add	a3,a3,a4
     a52:	0705                	addi	a4,a4,1
     a54:	00c6ca63          	blt	a3,a2,a68 <mui_u8g2_handle_scroll_next_prev_events+0x5e>
     a58:	02079123          	sh	zero,34(a5)
     a5c:	8082                	ret
     a5e:	e11d                	bnez	a0,a84 <mui_u8g2_handle_scroll_next_prev_events+0x7a>
     a60:	0227d703          	lhu	a4,34(a5)
     a64:	c711                	beqz	a4,a70 <mui_u8g2_handle_scroll_next_prev_events+0x66>
     a66:	177d                	addi	a4,a4,-1
     a68:	02e79123          	sh	a4,34(a5)
     a6c:	4505                	li	a0,1
     a6e:	8082                	ret
     a70:	0207d703          	lhu	a4,32(a5)
     a74:	0247c683          	lbu	a3,36(a5)
     a78:	00e6f763          	bgeu	a3,a4,a86 <mui_u8g2_handle_scroll_next_prev_events+0x7c>
     a7c:	8f15                	sub	a4,a4,a3
     a7e:	02e79123          	sh	a4,34(a5)
     a82:	8082                	ret
     a84:	4501                	li	a0,0
     a86:	8082                	ret

00000a88 <mui_u8g2_u16_list_child_mse_common>:
     a88:	f68ff2ef          	jal	t0,1f0 <__riscv_save_0>
     a8c:	5d1c                	lw	a5,56(a0)
     a8e:	15f9                	addi	a1,a1,-2
     a90:	0ff5f593          	andi	a1,a1,255
     a94:	46a9                	li	a3,10
     a96:	43d8                	lw	a4,4(a5)
     a98:	02e54783          	lbu	a5,46(a0)
     a9c:	04b6ed63          	bltu	a3,a1,af6 <mui_u8g2_u16_list_child_mse_common+0x6e>
     aa0:	668d                	lui	a3,0x3
     aa2:	93c68693          	addi	a3,a3,-1732 # 293c <Delay_Ms+0x48>
     aa6:	058a                	slli	a1,a1,0x2
     aa8:	95b6                	add	a1,a1,a3
     aaa:	4194                	lw	a3,0(a1)
     aac:	842a                	mv	s0,a0
     aae:	8682                	jr	a3
     ab0:	02444683          	lbu	a3,36(s0)
     ab4:	4348                	lw	a0,4(a4)
     ab6:	4758                	lw	a4,12(a4)
     ab8:	02041123          	sh	zero,34(s0)
     abc:	00d7e563          	bltu	a5,a3,ac6 <mui_u8g2_u16_list_child_mse_common+0x3e>
     ac0:	0785                	addi	a5,a5,1
     ac2:	02f40223          	sb	a5,36(s0)
     ac6:	02045783          	lhu	a5,32(s0)
     aca:	4481                	li	s1,0
     acc:	e781                	bnez	a5,ad4 <mui_u8g2_u16_list_child_mse_common+0x4c>
     ace:	9702                	jalr	a4
     ad0:	02a41023          	sh	a0,32(s0)
     ad4:	8526                	mv	a0,s1
     ad6:	f3eff06f          	j	214 <__riscv_restore_0>
     ada:	4591                	li	a1,4
     adc:	8522                	mv	a0,s0
     ade:	3735                	jal	a0a <mui_u8g2_handle_scroll_next_prev_events>
     ae0:	84aa                	mv	s1,a0
     ae2:	bfcd                	j	ad4 <mui_u8g2_u16_list_child_mse_common+0x4c>
     ae4:	4318                	lw	a4,0(a4)
     ae6:	c711                	beqz	a4,af2 <mui_u8g2_u16_list_child_mse_common+0x6a>
     ae8:	02255683          	lhu	a3,34(a0)
     aec:	97b6                	add	a5,a5,a3
     aee:	00f71023          	sh	a5,0(a4)
     af2:	8522                	mv	a0,s0
     af4:	3da5                	jal	96c <mui_RestoreForm>
     af6:	4481                	li	s1,0
     af8:	bff1                	j	ad4 <mui_u8g2_u16_list_child_mse_common+0x4c>
     afa:	45ad                	li	a1,11
     afc:	b7c5                	j	adc <mui_u8g2_u16_list_child_mse_common+0x54>
     afe:	45b1                	li	a1,12
     b00:	bff1                	j	adc <mui_u8g2_u16_list_child_mse_common+0x54>

00000b02 <mui_u8g2_u8_opt_child_mse_common>:
     b02:	eeeff2ef          	jal	t0,1f0 <__riscv_save_0>
     b06:	15f9                	addi	a1,a1,-2
     b08:	0ff5f593          	andi	a1,a1,255
     b0c:	4729                	li	a4,10
     b0e:	02e54783          	lbu	a5,46(a0)
     b12:	04b76c63          	bltu	a4,a1,b6a <mui_u8g2_u8_opt_child_mse_common+0x68>
     b16:	670d                	lui	a4,0x3
     b18:	96870713          	addi	a4,a4,-1688 # 2968 <Delay_Ms+0x74>
     b1c:	058a                	slli	a1,a1,0x2
     b1e:	95ba                	add	a1,a1,a4
     b20:	4198                	lw	a4,0(a1)
     b22:	842a                	mv	s0,a0
     b24:	8702                	jr	a4
     b26:	02454703          	lbu	a4,36(a0)
     b2a:	00e7e563          	bltu	a5,a4,b34 <mui_u8g2_u8_opt_child_mse_common+0x32>
     b2e:	0785                	addi	a5,a5,1
     b30:	02f50223          	sb	a5,36(a0)
     b34:	02045783          	lhu	a5,32(s0)
     b38:	4481                	li	s1,0
     b3a:	e791                	bnez	a5,b46 <mui_u8g2_u8_opt_child_mse_common+0x44>
     b3c:	5c2c                	lw	a1,120(s0)
     b3e:	8522                	mv	a0,s0
     b40:	391d                	jal	776 <mui_GetSelectableFieldOptionCnt>
     b42:	02a41023          	sh	a0,32(s0)
     b46:	8526                	mv	a0,s1
     b48:	eccff06f          	j	214 <__riscv_restore_0>
     b4c:	4591                	li	a1,4
     b4e:	8522                	mv	a0,s0
     b50:	3d6d                	jal	a0a <mui_u8g2_handle_scroll_next_prev_events>
     b52:	84aa                	mv	s1,a0
     b54:	bfcd                	j	b46 <mui_u8g2_u8_opt_child_mse_common+0x44>
     b56:	5d18                	lw	a4,56(a0)
     b58:	4358                	lw	a4,4(a4)
     b5a:	c711                	beqz	a4,b66 <mui_u8g2_u8_opt_child_mse_common+0x64>
     b5c:	02254683          	lbu	a3,34(a0)
     b60:	97b6                	add	a5,a5,a3
     b62:	00f70023          	sb	a5,0(a4)
     b66:	8522                	mv	a0,s0
     b68:	3511                	jal	96c <mui_RestoreForm>
     b6a:	4481                	li	s1,0
     b6c:	bfe9                	j	b46 <mui_u8g2_u8_opt_child_mse_common+0x44>
     b6e:	45ad                	li	a1,11
     b70:	bff9                	j	b4e <mui_u8g2_u8_opt_child_mse_common+0x4c>
     b72:	45b1                	li	a1,12
     b74:	bfe9                	j	b4e <mui_u8g2_u8_opt_child_mse_common+0x4c>

00000b76 <mui_get_x>:
     b76:	4118                	lw	a4,0(a0)
     b78:	02b54783          	lbu	a5,43(a0)
     b7c:	04475683          	lhu	a3,68(a4)
     b80:	0fe00713          	li	a4,254
     b84:	00d77363          	bgeu	a4,a3,b8a <mui_get_x+0x14>
     b88:	0786                	slli	a5,a5,0x1
     b8a:	853e                	mv	a0,a5
     b8c:	8082                	ret

00000b8e <mui_get_y>:
     b8e:	02c54503          	lbu	a0,44(a0)
     b92:	8082                	ret

00000b94 <mui_get_U8g2>:
     b94:	4108                	lw	a0,0(a0)
     b96:	8082                	ret

00000b98 <mui_u8g2_draw_button_utf>:
     b98:	e58ff2ef          	jal	t0,1f0 <__riscv_save_0>
     b9c:	1101                	addi	sp,sp,-32
     b9e:	842a                	mv	s0,a0
     ba0:	e789                	bnez	a5,baa <mui_u8g2_draw_button_utf+0x12>
     ba2:	000037b7          	lui	a5,0x3
     ba6:	99478793          	addi	a5,a5,-1644 # 2994 <Delay_Ms+0xa0>
     baa:	8522                	mv	a0,s0
     bac:	ce3e                	sw	a5,28(sp)
     bae:	cc3a                	sw	a4,24(sp)
     bb0:	ca36                	sw	a3,20(sp)
     bb2:	c832                	sw	a2,16(sp)
     bb4:	c62e                	sw	a1,12(sp)
     bb6:	37c1                	jal	b76 <mui_get_x>
     bb8:	47f2                	lw	a5,28(sp)
     bba:	4762                	lw	a4,24(sp)
     bbc:	46d2                	lw	a3,20(sp)
     bbe:	4642                	lw	a2,16(sp)
     bc0:	45b2                	lw	a1,12(sp)
     bc2:	88be                	mv	a7,a5
     bc4:	883a                	mv	a6,a4
     bc6:	87b6                	mv	a5,a3
     bc8:	8732                	mv	a4,a2
     bca:	86ae                	mv	a3,a1
     bcc:	02c44603          	lbu	a2,44(s0)
     bd0:	85aa                	mv	a1,a0
     bd2:	4008                	lw	a0,0(s0)
     bd4:	2b8d                	jal	1146 <u8g2_DrawButtonUTF8>
     bd6:	6105                	addi	sp,sp,32
     bd8:	e3cff06f          	j	214 <__riscv_restore_0>

00000bdc <mui_u8g2_get_pi_flags>:
     bdc:	02d54783          	lbu	a5,45(a0)
     be0:	8b85                	andi	a5,a5,1
     be2:	cb89                	beqz	a5,bf4 <mui_u8g2_get_pi_flags+0x18>
     be4:	02654783          	lbu	a5,38(a0)
     be8:	02000513          	li	a0,32
     bec:	c789                	beqz	a5,bf6 <mui_u8g2_get_pi_flags+0x1a>
     bee:	0a000513          	li	a0,160
     bf2:	8082                	ret
     bf4:	4501                	li	a0,0
     bf6:	8082                	ret

00000bf8 <mui_u8g2_draw_button_pi>:
     bf8:	df8ff2ef          	jal	t0,1f0 <__riscv_save_0>
     bfc:	1141                	addi	sp,sp,-16
     bfe:	842a                	mv	s0,a0
     c00:	c62e                	sw	a1,12(sp)
     c02:	c432                	sw	a2,8(sp)
     c04:	c236                	sw	a3,4(sp)
     c06:	3fd9                	jal	bdc <mui_u8g2_get_pi_flags>
     c08:	4622                	lw	a2,8(sp)
     c0a:	45b2                	lw	a1,12(sp)
     c0c:	4792                	lw	a5,4(sp)
     c0e:	86b2                	mv	a3,a2
     c10:	4705                	li	a4,1
     c12:	862e                	mv	a2,a1
     c14:	85aa                	mv	a1,a0
     c16:	8522                	mv	a0,s0
     c18:	3741                	jal	b98 <mui_u8g2_draw_button_utf>
     c1a:	0141                	addi	sp,sp,16
     c1c:	df8ff06f          	j	214 <__riscv_restore_0>

00000c20 <mui_u8g2_set_font_style_function>:
     c20:	4785                	li	a5,1
     c22:	00f59c63          	bne	a1,a5,c3a <mui_u8g2_set_font_style_function+0x1a>
     c26:	dcaff2ef          	jal	t0,1f0 <__riscv_save_0>
     c2a:	5d1c                	lw	a5,56(a0)
     c2c:	4108                	lw	a0,0(a0)
     c2e:	43cc                	lw	a1,4(a5)
     c30:	491000ef          	jal	ra,18c0 <u8g2_SetFont>
     c34:	4501                	li	a0,0
     c36:	ddeff06f          	j	214 <__riscv_restore_0>
     c3a:	4501                	li	a0,0
     c3c:	8082                	ret

00000c3e <mui_u8g2_draw_text>:
     c3e:	4785                	li	a5,1
     c40:	02f59163          	bne	a1,a5,c62 <mui_u8g2_draw_text+0x24>
     c44:	dacff2ef          	jal	t0,1f0 <__riscv_save_0>
     c48:	842a                	mv	s0,a0
     c4a:	3735                	jal	b76 <mui_get_x>
     c4c:	85aa                	mv	a1,a0
     c4e:	02c44603          	lbu	a2,44(s0)
     c52:	4008                	lw	a0,0(s0)
     c54:	03c40693          	addi	a3,s0,60
     c58:	3f3000ef          	jal	ra,184a <u8g2_DrawUTF8>
     c5c:	4501                	li	a0,0
     c5e:	db6ff06f          	j	214 <__riscv_restore_0>
     c62:	4501                	li	a0,0
     c64:	8082                	ret

00000c66 <mui_u8g2_goto_data>:
     c66:	4789                	li	a5,2
     c68:	00f59463          	bne	a1,a5,c70 <mui_u8g2_goto_data+0xa>
     c6c:	595c                	lw	a5,52(a0)
     c6e:	dd3c                	sw	a5,120(a0)
     c70:	4501                	li	a0,0
     c72:	8082                	ret

00000c74 <mui_u8g2_goto_form_w1_pi>:
     c74:	d7cff2ef          	jal	t0,1f0 <__riscv_save_0>
     c78:	4705                	li	a4,1
     c7a:	842a                	mv	s0,a0
     c7c:	02e54603          	lbu	a2,46(a0)
     c80:	00e58763          	beq	a1,a4,c8e <mui_u8g2_goto_form_w1_pi+0x1a>
     c84:	4715                	li	a4,5
     c86:	04e58063          	beq	a1,a4,cc6 <mui_u8g2_goto_form_w1_pi+0x52>
     c8a:	3da5                	jal	b02 <mui_u8g2_u8_opt_child_mse_common>
     c8c:	a821                	j	ca4 <mui_u8g2_goto_form_w1_pi+0x30>
     c8e:	02254783          	lbu	a5,34(a0)
     c92:	5d2c                	lw	a1,120(a0)
     c94:	4104                	lw	s1,0(a0)
     c96:	963e                	add	a2,a2,a5
     c98:	0ff67613          	andi	a2,a2,255
     c9c:	ab5ff0ef          	jal	ra,750 <mui_GetSelectableFieldTextOption>
     ca0:	e501                	bnez	a0,ca8 <mui_u8g2_goto_form_w1_pi+0x34>
     ca2:	4501                	li	a0,0
     ca4:	d70ff06f          	j	214 <__riscv_restore_0>
     ca8:	8522                	mv	a0,s0
     caa:	35f1                	jal	b76 <mui_get_x>
     cac:	0444d583          	lhu	a1,68(s1)
     cb0:	00151793          	slli	a5,a0,0x1
     cb4:	862a                	mv	a2,a0
     cb6:	8d9d                	sub	a1,a1,a5
     cb8:	05c2                	slli	a1,a1,0x10
     cba:	03d40693          	addi	a3,s0,61
     cbe:	81c1                	srli	a1,a1,0x10
     cc0:	8522                	mv	a0,s0
     cc2:	3f1d                	jal	bf8 <mui_u8g2_draw_button_pi>
     cc4:	bff9                	j	ca2 <mui_u8g2_goto_form_w1_pi+0x2e>
     cc6:	02254783          	lbu	a5,34(a0)
     cca:	5d2c                	lw	a1,120(a0)
     ccc:	963e                	add	a2,a2,a5
     cce:	0ff67613          	andi	a2,a2,255
     cd2:	a7fff0ef          	jal	ra,750 <mui_GetSelectableFieldTextOption>
     cd6:	d571                	beqz	a0,ca2 <mui_u8g2_goto_form_w1_pi+0x2e>
     cd8:	02244783          	lbu	a5,34(s0)
     cdc:	02e44583          	lbu	a1,46(s0)
     ce0:	8522                	mv	a0,s0
     ce2:	95be                	add	a1,a1,a5
     ce4:	0ff5f593          	andi	a1,a1,255
     ce8:	ad7ff0ef          	jal	ra,7be <mui_SaveFormWithCursorPosition>
     cec:	02e44583          	lbu	a1,46(s0)
     cf0:	02244783          	lbu	a5,34(s0)
     cf4:	8522                	mv	a0,s0
     cf6:	95be                	add	a1,a1,a5
     cf8:	0ff5f593          	andi	a1,a1,255
     cfc:	b23ff0ef          	jal	ra,81e <mui_SaveCursorPosition>
     d00:	03c44583          	lbu	a1,60(s0)
     d04:	8522                	mv	a0,s0
     d06:	3179                	jal	994 <mui_GotoFormAutoCursorPosition>
     d08:	bf71                	j	ca4 <mui_u8g2_goto_form_w1_pi+0x30>

00000d0a <mui_u8g2_u16_list_goto_w1_pi>:
     d0a:	cccff2ef          	jal	t0,1d6 <__riscv_save_4>
     d0e:	5d1c                	lw	a5,56(a0)
     d10:	02255703          	lhu	a4,34(a0)
     d14:	02e54483          	lbu	s1,46(a0)
     d18:	43dc                	lw	a5,4(a5)
     d1a:	1141                	addi	sp,sp,-16
     d1c:	94ba                	add	s1,s1,a4
     d1e:	04c2                	slli	s1,s1,0x10
     d20:	4705                	li	a4,1
     d22:	842a                	mv	s0,a0
     d24:	0047aa03          	lw	s4,4(a5)
     d28:	0087a983          	lw	s3,8(a5)
     d2c:	80c1                	srli	s1,s1,0x10
     d2e:	00e58d63          	beq	a1,a4,d48 <mui_u8g2_u16_list_goto_w1_pi+0x3e>
     d32:	c981                	beqz	a1,d42 <mui_u8g2_u16_list_goto_w1_pi+0x38>
     d34:	ffb58713          	addi	a4,a1,-5
     d38:	0ff77713          	andi	a4,a4,255
     d3c:	4689                	li	a3,2
     d3e:	02e6fe63          	bgeu	a3,a4,d7a <mui_u8g2_u16_list_goto_w1_pi+0x70>
     d42:	8522                	mv	a0,s0
     d44:	3391                	jal	a88 <mui_u8g2_u16_list_child_mse_common>
     d46:	a03d                	j	d74 <mui_u8g2_u16_list_goto_w1_pi+0x6a>
     d48:	353d                	jal	b76 <mui_get_x>
     d4a:	4018                	lw	a4,0(s0)
     d4c:	00151793          	slli	a5,a0,0x1
     d50:	c62a                	sw	a0,12(sp)
     d52:	04475903          	lhu	s2,68(a4)
     d56:	85a6                	mv	a1,s1
     d58:	8552                	mv	a0,s4
     d5a:	40f90933          	sub	s2,s2,a5
     d5e:	9982                	jalr	s3
     d60:	0942                	slli	s2,s2,0x10
     d62:	4632                	lw	a2,12(sp)
     d64:	01095913          	srli	s2,s2,0x10
     d68:	00150693          	addi	a3,a0,1
     d6c:	85ca                	mv	a1,s2
     d6e:	8522                	mv	a0,s0
     d70:	3561                	jal	bf8 <mui_u8g2_draw_button_pi>
     d72:	4501                	li	a0,0
     d74:	0141                	addi	sp,sp,16
     d76:	c94ff06f          	j	20a <__riscv_restore_4>
     d7a:	439c                	lw	a5,0(a5)
     d7c:	c399                	beqz	a5,d82 <mui_u8g2_u16_list_goto_w1_pi+0x78>
     d7e:	00979023          	sh	s1,0(a5)
     d82:	0fe00793          	li	a5,254
     d86:	8926                	mv	s2,s1
     d88:	0097f363          	bgeu	a5,s1,d8e <mui_u8g2_u16_list_goto_w1_pi+0x84>
     d8c:	4901                	li	s2,0
     d8e:	0ff97913          	andi	s2,s2,255
     d92:	85ca                	mv	a1,s2
     d94:	8522                	mv	a0,s0
     d96:	a29ff0ef          	jal	ra,7be <mui_SaveFormWithCursorPosition>
     d9a:	85ca                	mv	a1,s2
     d9c:	8522                	mv	a0,s0
     d9e:	a81ff0ef          	jal	ra,81e <mui_SaveCursorPosition>
     da2:	85a6                	mv	a1,s1
     da4:	8552                	mv	a0,s4
     da6:	9982                	jalr	s3
     da8:	00054583          	lbu	a1,0(a0)
     dac:	8522                	mv	a0,s0
     dae:	36dd                	jal	994 <mui_GotoFormAutoCursorPosition>
     db0:	b7c9                	j	d72 <mui_u8g2_u16_list_goto_w1_pi+0x68>

00000db2 <u8g2_DrawBox>:
     db2:	c24ff2ef          	jal	t0,1d6 <__riscv_save_4>
     db6:	9732                	add	a4,a4,a2
     db8:	01071493          	slli	s1,a4,0x10
     dbc:	89b6                	mv	s3,a3
     dbe:	96ae                	add	a3,a3,a1
     dc0:	80c1                	srli	s1,s1,0x10
     dc2:	06c2                	slli	a3,a3,0x10
     dc4:	8726                	mv	a4,s1
     dc6:	82c1                	srli	a3,a3,0x10
     dc8:	8a2a                	mv	s4,a0
     dca:	892e                	mv	s2,a1
     dcc:	8432                	mv	s0,a2
     dce:	46f000ef          	jal	ra,1a3c <u8g2_IsIntersection>
     dd2:	ed09                	bnez	a0,dec <u8g2_DrawBox+0x3a>
     dd4:	c36ff06f          	j	20a <__riscv_restore_4>
     dd8:	8622                	mv	a2,s0
     dda:	0405                	addi	s0,s0,1
     ddc:	4701                	li	a4,0
     dde:	86ce                	mv	a3,s3
     de0:	85ca                	mv	a1,s2
     de2:	8552                	mv	a0,s4
     de4:	0442                	slli	s0,s0,0x10
     de6:	325000ef          	jal	ra,190a <u8g2_DrawHVLine>
     dea:	8041                	srli	s0,s0,0x10
     dec:	fe8496e3          	bne	s1,s0,dd8 <u8g2_DrawBox+0x26>
     df0:	b7d5                	j	dd4 <u8g2_DrawBox+0x22>

00000df2 <u8g2_DrawFrame>:
     df2:	be4ff2ef          	jal	t0,1d6 <__riscv_save_4>
     df6:	00d58933          	add	s2,a1,a3
     dfa:	84ba                	mv	s1,a4
     dfc:	0942                	slli	s2,s2,0x10
     dfe:	9732                	add	a4,a4,a2
     e00:	01095913          	srli	s2,s2,0x10
     e04:	0742                	slli	a4,a4,0x10
     e06:	8ab6                	mv	s5,a3
     e08:	8341                	srli	a4,a4,0x10
     e0a:	86ca                	mv	a3,s2
     e0c:	89aa                	mv	s3,a0
     e0e:	8a2e                	mv	s4,a1
     e10:	8432                	mv	s0,a2
     e12:	42b000ef          	jal	ra,1a3c <u8g2_IsIntersection>
     e16:	cd29                	beqz	a0,e70 <u8g2_DrawFrame+0x7e>
     e18:	4701                	li	a4,0
     e1a:	86d6                	mv	a3,s5
     e1c:	8622                	mv	a2,s0
     e1e:	85d2                	mv	a1,s4
     e20:	854e                	mv	a0,s3
     e22:	2e9000ef          	jal	ra,190a <u8g2_DrawHVLine>
     e26:	4785                	li	a5,1
     e28:	0497f463          	bgeu	a5,s1,e70 <u8g2_DrawFrame+0x7e>
     e2c:	14f9                	addi	s1,s1,-2
     e2e:	04c2                	slli	s1,s1,0x10
     e30:	0405                	addi	s0,s0,1
     e32:	0442                	slli	s0,s0,0x10
     e34:	80c1                	srli	s1,s1,0x10
     e36:	8041                	srli	s0,s0,0x10
     e38:	c48d                	beqz	s1,e62 <u8g2_DrawFrame+0x70>
     e3a:	8622                	mv	a2,s0
     e3c:	4705                	li	a4,1
     e3e:	86a6                	mv	a3,s1
     e40:	85d2                	mv	a1,s4
     e42:	854e                	mv	a0,s3
     e44:	2c7000ef          	jal	ra,190a <u8g2_DrawHVLine>
     e48:	fff90593          	addi	a1,s2,-1
     e4c:	8622                	mv	a2,s0
     e4e:	05c2                	slli	a1,a1,0x10
     e50:	9426                	add	s0,s0,s1
     e52:	4705                	li	a4,1
     e54:	86a6                	mv	a3,s1
     e56:	81c1                	srli	a1,a1,0x10
     e58:	854e                	mv	a0,s3
     e5a:	0442                	slli	s0,s0,0x10
     e5c:	2af000ef          	jal	ra,190a <u8g2_DrawHVLine>
     e60:	8041                	srli	s0,s0,0x10
     e62:	4701                	li	a4,0
     e64:	86d6                	mv	a3,s5
     e66:	8622                	mv	a2,s0
     e68:	85d2                	mv	a1,s4
     e6a:	854e                	mv	a0,s3
     e6c:	29f000ef          	jal	ra,190a <u8g2_DrawHVLine>
     e70:	b9aff06f          	j	20a <__riscv_restore_4>

00000e74 <u8g2_send_buffer>:
     e74:	b62ff2ef          	jal	t0,1d6 <__riscv_save_4>
     e78:	411c                	lw	a5,0(a0)
     e7a:	03854a83          	lbu	s5,56(a0)
     e7e:	03954983          	lbu	s3,57(a0)
     e82:	0117ca03          	lbu	s4,17(a5)
     e86:	84aa                	mv	s1,a0
     e88:	4901                	li	s2,0
     e8a:	409c                	lw	a5,0(s1)
     e8c:	58d8                	lw	a4,52(s1)
     e8e:	0ff97413          	andi	s0,s2,255
     e92:	0107c683          	lbu	a3,16(a5)
     e96:	00898633          	add	a2,s3,s0
     e9a:	0405                	addi	s0,s0,1
     e9c:	02d907b3          	mul	a5,s2,a3
     ea0:	0ff67613          	andi	a2,a2,255
     ea4:	4581                	li	a1,0
     ea6:	8526                	mv	a0,s1
     ea8:	0ff47413          	andi	s0,s0,255
     eac:	07c2                	slli	a5,a5,0x10
     eae:	83c1                	srli	a5,a5,0x10
     eb0:	078e                	slli	a5,a5,0x3
     eb2:	07c2                	slli	a5,a5,0x10
     eb4:	83c1                	srli	a5,a5,0x10
     eb6:	973e                	add	a4,a4,a5
     eb8:	272010ef          	jal	ra,212a <u8x8_DrawTile>
     ebc:	01547963          	bgeu	s0,s5,ece <u8g2_send_buffer+0x5a>
     ec0:	0905                	addi	s2,s2,1
     ec2:	012987b3          	add	a5,s3,s2
     ec6:	0ff7f793          	andi	a5,a5,255
     eca:	fd47e0e3          	bltu	a5,s4,e8a <u8g2_send_buffer+0x16>
     ece:	b3cff06f          	j	20a <__riscv_restore_4>

00000ed2 <u8g2_ClearBuffer>:
     ed2:	b1eff2ef          	jal	t0,1f0 <__riscv_save_0>
     ed6:	411c                	lw	a5,0(a0)
     ed8:	4581                	li	a1,0
     eda:	0107c603          	lbu	a2,16(a5)
     ede:	03854783          	lbu	a5,56(a0)
     ee2:	5948                	lw	a0,52(a0)
     ee4:	02f60633          	mul	a2,a2,a5
     ee8:	060e                	slli	a2,a2,0x3
     eea:	b36ff0ef          	jal	ra,220 <memset>
     eee:	b26ff06f          	j	214 <__riscv_restore_0>

00000ef2 <u8g2_SetBufferCurrTileRow>:
     ef2:	afeff2ef          	jal	t0,1f0 <__riscv_save_0>
     ef6:	591c                	lw	a5,48(a0)
     ef8:	02b50ca3          	sb	a1,57(a0)
     efc:	842a                	mv	s0,a0
     efe:	439c                	lw	a5,0(a5)
     f00:	9782                	jalr	a5
     f02:	581c                	lw	a5,48(s0)
     f04:	8522                	mv	a0,s0
     f06:	43dc                	lw	a5,4(a5)
     f08:	9782                	jalr	a5
     f0a:	b0aff06f          	j	214 <__riscv_restore_0>

00000f0e <u8g2_FirstPage>:
     f0e:	ae2ff2ef          	jal	t0,1f0 <__riscv_save_0>
     f12:	09354783          	lbu	a5,147(a0)
     f16:	842a                	mv	s0,a0
     f18:	c391                	beqz	a5,f1c <u8g2_FirstPage+0xe>
     f1a:	3f65                	jal	ed2 <u8g2_ClearBuffer>
     f1c:	4581                	li	a1,0
     f1e:	8522                	mv	a0,s0
     f20:	3fc9                	jal	ef2 <u8g2_SetBufferCurrTileRow>
     f22:	af2ff06f          	j	214 <__riscv_restore_0>

00000f26 <u8g2_NextPage>:
     f26:	acaff2ef          	jal	t0,1f0 <__riscv_save_0>
     f2a:	1141                	addi	sp,sp,-16
     f2c:	842a                	mv	s0,a0
     f2e:	3799                	jal	e74 <u8g2_send_buffer>
     f30:	03844783          	lbu	a5,56(s0)
     f34:	03944583          	lbu	a1,57(s0)
     f38:	95be                	add	a1,a1,a5
     f3a:	401c                	lw	a5,0(s0)
     f3c:	0ff5f593          	andi	a1,a1,255
     f40:	0117c783          	lbu	a5,17(a5)
     f44:	00f5e963          	bltu	a1,a5,f56 <u8g2_NextPage+0x30>
     f48:	8522                	mv	a0,s0
     f4a:	23a010ef          	jal	ra,2184 <u8x8_RefreshDisplay>
     f4e:	4501                	li	a0,0
     f50:	0141                	addi	sp,sp,16
     f52:	ac2ff06f          	j	214 <__riscv_restore_0>
     f56:	09344783          	lbu	a5,147(s0)
     f5a:	c789                	beqz	a5,f64 <u8g2_NextPage+0x3e>
     f5c:	8522                	mv	a0,s0
     f5e:	c62e                	sw	a1,12(sp)
     f60:	3f8d                	jal	ed2 <u8g2_ClearBuffer>
     f62:	45b2                	lw	a1,12(sp)
     f64:	8522                	mv	a0,s0
     f66:	3771                	jal	ef2 <u8g2_SetBufferCurrTileRow>
     f68:	4505                	li	a0,1
     f6a:	b7dd                	j	f50 <u8g2_NextPage+0x2a>

00000f6c <u8g2_DrawButtonFrame>:
     f6c:	a54ff2ef          	jal	t0,1c0 <__riscv_save_12>
     f70:	842a                	mv	s0,a0
     f72:	84be                	mv	s1,a5
     f74:	09244783          	lbu	a5,146(s0)
     f78:	7179                	addi	sp,sp,-48
     f7a:	c242                	sw	a6,4(sp)
     f7c:	c03e                	sw	a5,0(sp)
     f7e:	0806f793          	andi	a5,a3,128
     f82:	8a3a                	mv	s4,a4
     f84:	8ab6                	mv	s5,a3
     f86:	08e50703          	lb	a4,142(a0)
     f8a:	0076fd13          	andi	s10,a3,7
     f8e:	08f50503          	lb	a0,143(a0)
     f92:	14078963          	beqz	a5,10e4 <u8g2_DrawButtonFrame+0x178>
     f96:	001d0793          	addi	a5,s10,1
     f9a:	c63e                	sw	a5,12(sp)
     f9c:	002d0b93          	addi	s7,s10,2
     fa0:	00149793          	slli	a5,s1,0x1
     fa4:	97d2                	add	a5,a5,s4
     fa6:	07c2                	slli	a5,a5,0x10
     fa8:	83c1                	srli	a5,a5,0x10
     faa:	cc3e                	sw	a5,24(sp)
     fac:	4792                	lw	a5,4(sp)
     fae:	01071813          	slli	a6,a4,0x10
     fb2:	01085813          	srli	a6,a6,0x10
     fb6:	0786                	slli	a5,a5,0x1
     fb8:	97c2                	add	a5,a5,a6
     fba:	8f89                	sub	a5,a5,a0
     fbc:	07c2                	slli	a5,a5,0x10
     fbe:	83c1                	srli	a5,a5,0x10
     fc0:	409588b3          	sub	a7,a1,s1
     fc4:	ce3e                	sw	a5,28(sp)
     fc6:	01089793          	slli	a5,a7,0x10
     fca:	83c1                	srli	a5,a5,0x10
     fcc:	c43e                	sw	a5,8(sp)
     fce:	4792                	lw	a5,4(sp)
     fd0:	8f09                	sub	a4,a4,a0
     fd2:	403ad693          	srai	a3,s5,0x3
     fd6:	8e1d                	sub	a2,a2,a5
     fd8:	410607b3          	sub	a5,a2,a6
     fdc:	d03e                	sw	a5,32(sp)
     fde:	01071793          	slli	a5,a4,0x10
     fe2:	8a8d                	andi	a3,a3,3
     fe4:	83c1                	srli	a5,a5,0x10
     fe6:	fff68c13          	addi	s8,a3,-1
     fea:	ca3e                	sw	a5,20(sp)
     fec:	47a2                	lw	a5,8(sp)
     fee:	0c42                	slli	s8,s8,0x10
     ff0:	010c5c13          	srli	s8,s8,0x10
     ff4:	01878733          	add	a4,a5,s8
     ff8:	01071793          	slli	a5,a4,0x10
     ffc:	95a6                	add	a1,a1,s1
     ffe:	83c1                	srli	a5,a5,0x10
    1000:	95d2                	add	a1,a1,s4
    1002:	d43e                	sw	a5,40(sp)
    1004:	00b687b3          	add	a5,a3,a1
    1008:	8dde                	mv	s11,s7
    100a:	d63e                	sw	a5,44(sp)
    100c:	47a2                	lw	a5,8(sp)
    100e:	001d9913          	slli	s2,s11,0x1
    1012:	0942                	slli	s2,s2,0x10
    1014:	41b78cb3          	sub	s9,a5,s11
    1018:	47e2                	lw	a5,24(sp)
    101a:	01095913          	srli	s2,s2,0x10
    101e:	8522                	mv	a0,s0
    1020:	01278733          	add	a4,a5,s2
    1024:	01071793          	slli	a5,a4,0x10
    1028:	4c78                	lw	a4,92(s0)
    102a:	83c1                	srli	a5,a5,0x10
    102c:	c83e                	sw	a5,16(sp)
    102e:	9702                	jalr	a4
    1030:	5782                	lw	a5,32(sp)
    1032:	0cc2                	slli	s9,s9,0x10
    1034:	010cdc93          	srli	s9,s9,0x10
    1038:	953e                	add	a0,a0,a5
    103a:	47f2                	lw	a5,28(sp)
    103c:	01051b13          	slli	s6,a0,0x10
    1040:	010b5b13          	srli	s6,s6,0x10
    1044:	41bb09b3          	sub	s3,s6,s11
    1048:	993e                	add	s2,s2,a5
    104a:	09c2                	slli	s3,s3,0x10
    104c:	0942                	slli	s2,s2,0x10
    104e:	0109d993          	srli	s3,s3,0x10
    1052:	01095913          	srli	s2,s2,0x10
    1056:	080d8b63          	beqz	s11,10ec <u8g2_DrawButtonFrame+0x180>
    105a:	47b2                	lw	a5,12(sp)
    105c:	00fd9863          	bne	s11,a5,106c <u8g2_DrawButtonFrame+0x100>
    1060:	4782                	lw	a5,0(sp)
    1062:	8522                	mv	a0,s0
    1064:	0017b593          	seqz	a1,a5
    1068:	1a7000ef          	jal	ra,1a0e <u8g2_SetDrawColor>
    106c:	46c2                	lw	a3,16(sp)
    106e:	874a                	mv	a4,s2
    1070:	864e                	mv	a2,s3
    1072:	85e6                	mv	a1,s9
    1074:	8522                	mv	a0,s0
    1076:	3bb5                	jal	df2 <u8g2_DrawFrame>
    1078:	4582                	lw	a1,0(sp)
    107a:	8522                	mv	a0,s0
    107c:	193000ef          	jal	ra,1a0e <u8g2_SetDrawColor>
    1080:	018af713          	andi	a4,s5,24
    1084:	cb29                	beqz	a4,10d6 <u8g2_DrawButtonFrame+0x16a>
    1086:	05ad9863          	bne	s11,s10,10d6 <u8g2_DrawButtonFrame+0x16a>
    108a:	9b62                	add	s6,s6,s8
    108c:	010b1793          	slli	a5,s6,0x10
    1090:	83c1                	srli	a5,a5,0x10
    1092:	d23e                	sw	a5,36(sp)
    1094:	57b2                	lw	a5,44(sp)
    1096:	99e2                	add	s3,s3,s8
    1098:	4c81                	li	s9,0
    109a:	00fd8b33          	add	s6,s11,a5
    109e:	99ca                	add	s3,s3,s2
    10a0:	1b7d                	addi	s6,s6,-1
    10a2:	013c8633          	add	a2,s9,s3
    10a6:	46c2                	lw	a3,16(sp)
    10a8:	55a2                	lw	a1,40(sp)
    10aa:	0642                	slli	a2,a2,0x10
    10ac:	8241                	srli	a2,a2,0x10
    10ae:	8522                	mv	a0,s0
    10b0:	147000ef          	jal	ra,19f6 <u8g2_DrawHLine>
    10b4:	016c85b3          	add	a1,s9,s6
    10b8:	5612                	lw	a2,36(sp)
    10ba:	05c2                	slli	a1,a1,0x10
    10bc:	86ca                	mv	a3,s2
    10be:	81c1                	srli	a1,a1,0x10
    10c0:	8522                	mv	a0,s0
    10c2:	141000ef          	jal	ra,1a02 <u8g2_DrawVLine>
    10c6:	001c8713          	addi	a4,s9,1
    10ca:	01071c93          	slli	s9,a4,0x10
    10ce:	010cdc93          	srli	s9,s9,0x10
    10d2:	fd9d98e3          	bne	s11,s9,10a2 <u8g2_DrawButtonFrame+0x136>
    10d6:	fffd8793          	addi	a5,s11,-1
    10da:	01079d93          	slli	s11,a5,0x10
    10de:	010ddd93          	srli	s11,s11,0x10
    10e2:	b72d                	j	100c <u8g2_DrawButtonFrame+0xa0>
    10e4:	47a1                	li	a5,8
    10e6:	8bea                	mv	s7,s10
    10e8:	c63e                	sw	a5,12(sp)
    10ea:	bd5d                	j	fa0 <u8g2_DrawButtonFrame+0x34>
    10ec:	67a1                	lui	a5,0x8
    10ee:	17fd                	addi	a5,a5,-1
    10f0:	02fb87b3          	mul	a5,s7,a5
    10f4:	4712                	lw	a4,4(sp)
    10f6:	017486b3          	add	a3,s1,s7
    10fa:	020afa93          	andi	s5,s5,32
    10fe:	9bba                	add	s7,s7,a4
    1100:	4752                	lw	a4,20(sp)
    1102:	07c2                	slli	a5,a5,0x10
    1104:	83c1                	srli	a5,a5,0x10
    1106:	96be                	add	a3,a3,a5
    1108:	97de                	add	a5,a5,s7
    110a:	0686                	slli	a3,a3,0x1
    110c:	0786                	slli	a5,a5,0x1
    110e:	9a36                	add	s4,s4,a3
    1110:	97ba                	add	a5,a5,a4
    1112:	0a42                	slli	s4,s4,0x10
    1114:	01079713          	slli	a4,a5,0x10
    1118:	010a5a13          	srli	s4,s4,0x10
    111c:	8341                	srli	a4,a4,0x10
    111e:	020a8163          	beqz	s5,1140 <u8g2_DrawButtonFrame+0x1d4>
    1122:	4589                	li	a1,2
    1124:	8522                	mv	a0,s0
    1126:	c23a                	sw	a4,4(sp)
    1128:	0e7000ef          	jal	ra,1a0e <u8g2_SetDrawColor>
    112c:	4712                	lw	a4,4(sp)
    112e:	85e6                	mv	a1,s9
    1130:	8522                	mv	a0,s0
    1132:	86d2                	mv	a3,s4
    1134:	864e                	mv	a2,s3
    1136:	39b5                	jal	db2 <u8g2_DrawBox>
    1138:	4582                	lw	a1,0(sp)
    113a:	8522                	mv	a0,s0
    113c:	0d3000ef          	jal	ra,1a0e <u8g2_SetDrawColor>
    1140:	6145                	addi	sp,sp,48
    1142:	8baff06f          	j	1fc <__riscv_restore_12>

00001146 <u8g2_DrawButtonUTF8>:
    1146:	890ff2ef          	jal	t0,1d6 <__riscv_save_4>
    114a:	1141                	addi	sp,sp,-16
    114c:	8aae                	mv	s5,a1
    114e:	85c6                	mv	a1,a7
    1150:	8a36                	mv	s4,a3
    1152:	c63a                	sw	a4,12(sp)
    1154:	c43e                	sw	a5,8(sp)
    1156:	c242                	sw	a6,4(sp)
    1158:	892a                	mv	s2,a0
    115a:	89b2                	mv	s3,a2
    115c:	8b46                	mv	s6,a7
    115e:	782000ef          	jal	ra,18e0 <u8g2_GetUTF8Width>
    1162:	040a7693          	andi	a3,s4,64
    1166:	842a                	mv	s0,a0
    1168:	4812                	lw	a6,4(sp)
    116a:	47a2                	lw	a5,8(sp)
    116c:	4732                	lw	a4,12(sp)
    116e:	ceb9                	beqz	a3,11cc <u8g2_DrawButtonUTF8+0x86>
    1170:	00150593          	addi	a1,a0,1
    1174:	4689                	li	a3,2
    1176:	02d5c5b3          	div	a1,a1,a3
    117a:	4481                	li	s1,0
    117c:	40ba85b3          	sub	a1,s5,a1
    1180:	01059a93          	slli	s5,a1,0x10
    1184:	010ada93          	srli	s5,s5,0x10
    1188:	00e57a63          	bgeu	a0,a4,119c <u8g2_DrawButtonUTF8+0x56>
    118c:	40a70433          	sub	s0,a4,a0
    1190:	02d44433          	div	s0,s0,a3
    1194:	01041493          	slli	s1,s0,0x10
    1198:	80c1                	srli	s1,s1,0x10
    119a:	843a                	mv	s0,a4
    119c:	854a                	mv	a0,s2
    119e:	4585                	li	a1,1
    11a0:	c442                	sw	a6,8(sp)
    11a2:	c23e                	sw	a5,4(sp)
    11a4:	2b5d                	jal	175a <u8g2_SetFontMode>
    11a6:	86da                	mv	a3,s6
    11a8:	864e                	mv	a2,s3
    11aa:	85d6                	mv	a1,s5
    11ac:	854a                	mv	a0,s2
    11ae:	2d71                	jal	184a <u8g2_DrawUTF8>
    11b0:	4822                	lw	a6,8(sp)
    11b2:	4792                	lw	a5,4(sp)
    11b4:	409a85b3          	sub	a1,s5,s1
    11b8:	05c2                	slli	a1,a1,0x10
    11ba:	8722                	mv	a4,s0
    11bc:	86d2                	mv	a3,s4
    11be:	864e                	mv	a2,s3
    11c0:	81c1                	srli	a1,a1,0x10
    11c2:	854a                	mv	a0,s2
    11c4:	3365                	jal	f6c <u8g2_DrawButtonFrame>
    11c6:	0141                	addi	sp,sp,16
    11c8:	842ff06f          	j	20a <__riscv_restore_4>
    11cc:	01051413          	slli	s0,a0,0x10
    11d0:	8041                	srli	s0,s0,0x10
    11d2:	86aa                	mv	a3,a0
    11d4:	00e47363          	bgeu	s0,a4,11da <u8g2_DrawButtonUTF8+0x94>
    11d8:	86ba                	mv	a3,a4
    11da:	01069413          	slli	s0,a3,0x10
    11de:	8041                	srli	s0,s0,0x10
    11e0:	4481                	li	s1,0
    11e2:	bf6d                	j	119c <u8g2_DrawButtonUTF8+0x56>

000011e4 <u8g2_ClearDisplay>:
    11e4:	80cff2ef          	jal	t0,1f0 <__riscv_save_0>
    11e8:	842a                	mv	s0,a0
    11ea:	3315                	jal	f0e <u8g2_FirstPage>
    11ec:	8522                	mv	a0,s0
    11ee:	3b25                	jal	f26 <u8g2_NextPage>
    11f0:	fd75                	bnez	a0,11ec <u8g2_ClearDisplay+0x8>
    11f2:	4581                	li	a1,0
    11f4:	8522                	mv	a0,s0
    11f6:	39f5                	jal	ef2 <u8g2_SetBufferCurrTileRow>
    11f8:	81cff06f          	j	214 <__riscv_restore_0>

000011fc <u8g2_m_16_8_f>:
    11fc:	47a1                	li	a5,8
    11fe:	00f50023          	sb	a5,0(a0)
    1202:	83018513          	addi	a0,gp,-2000 # 20000050 <buf.11378>
    1206:	8082                	ret

00001208 <u8g2_Setup_ssd1309_128x64_noname0_f>:
    1208:	fe9fe2ef          	jal	t0,1f0 <__riscv_save_0>
    120c:	8736                	mv	a4,a3
    120e:	84ae                	mv	s1,a1
    1210:	86b2                	mv	a3,a2
    1212:	000025b7          	lui	a1,0x2
    1216:	00002637          	lui	a2,0x2
    121a:	1141                	addi	sp,sp,-16
    121c:	e7460613          	addi	a2,a2,-396 # 1e74 <u8x8_cad_001>
    1220:	f7258593          	addi	a1,a1,-142 # 1f72 <u8x8_d_ssd1309_128x64_noname0>
    1224:	842a                	mv	s0,a0
    1226:	7af000ef          	jal	ra,21d4 <u8x8_Setup>
    122a:	00f10513          	addi	a0,sp,15
    122e:	37f9                	jal	11fc <u8g2_m_16_8_f>
    1230:	00f14603          	lbu	a2,15(sp)
    1234:	000026b7          	lui	a3,0x2
    1238:	85aa                	mv	a1,a0
    123a:	8726                	mv	a4,s1
    123c:	a6668693          	addi	a3,a3,-1434 # 1a66 <u8g2_ll_hvline_vertical_top_lsb>
    1240:	8522                	mv	a0,s0
    1242:	239000ef          	jal	ra,1c7a <u8g2_SetupBuffer>
    1246:	0141                	addi	sp,sp,16
    1248:	fcdfe06f          	j	214 <__riscv_restore_0>

0000124c <u8g2_font_get_word>:
    124c:	95aa                	add	a1,a1,a0
    124e:	0005c783          	lbu	a5,0(a1)
    1252:	0015c503          	lbu	a0,1(a1)
    1256:	07a2                	slli	a5,a5,0x8
    1258:	953e                	add	a0,a0,a5
    125a:	0542                	slli	a0,a0,0x10
    125c:	8141                	srli	a0,a0,0x10
    125e:	8082                	ret

00001260 <u8g2_font_calc_vref_font>:
    1260:	4501                	li	a0,0
    1262:	8082                	ret

00001264 <u8g2_read_font_info>:
    1264:	f8dfe2ef          	jal	t0,1f0 <__riscv_save_0>
    1268:	0005c783          	lbu	a5,0(a1)
    126c:	84ae                	mv	s1,a1
    126e:	842a                	mv	s0,a0
    1270:	00f50023          	sb	a5,0(a0)
    1274:	0015c783          	lbu	a5,1(a1)
    1278:	00f500a3          	sb	a5,1(a0)
    127c:	0025c783          	lbu	a5,2(a1)
    1280:	00f50123          	sb	a5,2(a0)
    1284:	0035c783          	lbu	a5,3(a1)
    1288:	00f501a3          	sb	a5,3(a0)
    128c:	0045c783          	lbu	a5,4(a1)
    1290:	00f50223          	sb	a5,4(a0)
    1294:	0055c783          	lbu	a5,5(a1)
    1298:	00f502a3          	sb	a5,5(a0)
    129c:	0065c783          	lbu	a5,6(a1)
    12a0:	00f50323          	sb	a5,6(a0)
    12a4:	0075c783          	lbu	a5,7(a1)
    12a8:	00f503a3          	sb	a5,7(a0)
    12ac:	0085c783          	lbu	a5,8(a1)
    12b0:	00f50423          	sb	a5,8(a0)
    12b4:	0095c783          	lbu	a5,9(a1)
    12b8:	00f504a3          	sb	a5,9(a0)
    12bc:	00a5c783          	lbu	a5,10(a1)
    12c0:	00f50523          	sb	a5,10(a0)
    12c4:	00b5c783          	lbu	a5,11(a1)
    12c8:	00f505a3          	sb	a5,11(a0)
    12cc:	00c5c783          	lbu	a5,12(a1)
    12d0:	00f50623          	sb	a5,12(a0)
    12d4:	00d5c783          	lbu	a5,13(a1)
    12d8:	00f506a3          	sb	a5,13(a0)
    12dc:	00e5c783          	lbu	a5,14(a1)
    12e0:	00f50723          	sb	a5,14(a0)
    12e4:	00f5c783          	lbu	a5,15(a1)
    12e8:	00f507a3          	sb	a5,15(a0)
    12ec:	0105c783          	lbu	a5,16(a1)
    12f0:	45c5                	li	a1,17
    12f2:	00f50823          	sb	a5,16(a0)
    12f6:	8526                	mv	a0,s1
    12f8:	3f91                	jal	124c <u8g2_font_get_word>
    12fa:	00a41923          	sh	a0,18(s0)
    12fe:	45cd                	li	a1,19
    1300:	8526                	mv	a0,s1
    1302:	37a9                	jal	124c <u8g2_font_get_word>
    1304:	00a41a23          	sh	a0,20(s0)
    1308:	45d5                	li	a1,21
    130a:	8526                	mv	a0,s1
    130c:	3781                	jal	124c <u8g2_font_get_word>
    130e:	00a41b23          	sh	a0,22(s0)
    1312:	f03fe06f          	j	214 <__riscv_restore_0>

00001316 <u8g2_font_decode_get_unsigned_bits>:
    1316:	4110                	lw	a2,0(a0)
    1318:	00c54803          	lbu	a6,12(a0)
    131c:	00064783          	lbu	a5,0(a2)
    1320:	00b80733          	add	a4,a6,a1
    1324:	0ff77713          	andi	a4,a4,255
    1328:	4107d6b3          	sra	a3,a5,a6
    132c:	479d                	li	a5,7
    132e:	00e7ed63          	bltu	a5,a4,1348 <u8g2_font_decode_get_unsigned_bits+0x32>
    1332:	0ff6f793          	andi	a5,a3,255
    1336:	00e50623          	sb	a4,12(a0)
    133a:	557d                	li	a0,-1
    133c:	00b51533          	sll	a0,a0,a1
    1340:	fff54513          	not	a0,a0
    1344:	8d7d                	and	a0,a0,a5
    1346:	8082                	ret
    1348:	00160793          	addi	a5,a2,1
    134c:	c11c                	sw	a5,0(a0)
    134e:	00164783          	lbu	a5,1(a2)
    1352:	4621                	li	a2,8
    1354:	41060633          	sub	a2,a2,a6
    1358:	00c797b3          	sll	a5,a5,a2
    135c:	8fd5                	or	a5,a5,a3
    135e:	1761                	addi	a4,a4,-8
    1360:	0ff7f793          	andi	a5,a5,255
    1364:	0ff77713          	andi	a4,a4,255
    1368:	b7f9                	j	1336 <u8g2_font_decode_get_unsigned_bits+0x20>

0000136a <u8g2_font_setup_decode>:
    136a:	e87fe2ef          	jal	t0,1f0 <__riscv_save_0>
    136e:	d12c                	sw	a1,96(a0)
    1370:	07854583          	lbu	a1,120(a0)
    1374:	06050493          	addi	s1,a0,96
    1378:	842a                	mv	s0,a0
    137a:	06050623          	sb	zero,108(a0)
    137e:	8526                	mv	a0,s1
    1380:	3f59                	jal	1316 <u8g2_font_decode_get_unsigned_bits>
    1382:	07944583          	lbu	a1,121(s0)
    1386:	06a40523          	sb	a0,106(s0)
    138a:	8526                	mv	a0,s1
    138c:	3769                	jal	1316 <u8g2_font_decode_get_unsigned_bits>
    138e:	09244783          	lbu	a5,146(s0)
    1392:	06a405a3          	sb	a0,107(s0)
    1396:	06f40723          	sb	a5,110(s0)
    139a:	0017b793          	seqz	a5,a5
    139e:	06f407a3          	sb	a5,111(s0)
    13a2:	e73fe06f          	j	214 <__riscv_restore_0>

000013a6 <u8g2_font_decode_get_signed_bits>:
    13a6:	e4bfe2ef          	jal	t0,1f0 <__riscv_save_0>
    13aa:	842e                	mv	s0,a1
    13ac:	37ad                	jal	1316 <u8g2_font_decode_get_unsigned_bits>
    13ae:	147d                	addi	s0,s0,-1
    13b0:	4785                	li	a5,1
    13b2:	008797b3          	sll	a5,a5,s0
    13b6:	8d1d                	sub	a0,a0,a5
    13b8:	0562                	slli	a0,a0,0x18
    13ba:	8561                	srai	a0,a0,0x18
    13bc:	e59fe06f          	j	214 <__riscv_restore_0>

000013c0 <u8g2_add_vector_y>:
    13c0:	4785                	li	a5,1
    13c2:	00f68c63          	beq	a3,a5,13da <u8g2_add_vector_y+0x1a>
    13c6:	c691                	beqz	a3,13d2 <u8g2_add_vector_y+0x12>
    13c8:	4789                	li	a5,2
    13ca:	00f68a63          	beq	a3,a5,13de <u8g2_add_vector_y+0x1e>
    13ce:	8d0d                	sub	a0,a0,a1
    13d0:	a011                	j	13d4 <u8g2_add_vector_y+0x14>
    13d2:	9532                	add	a0,a0,a2
    13d4:	0542                	slli	a0,a0,0x10
    13d6:	8141                	srli	a0,a0,0x10
    13d8:	8082                	ret
    13da:	952e                	add	a0,a0,a1
    13dc:	bfe5                	j	13d4 <u8g2_add_vector_y+0x14>
    13de:	8d11                	sub	a0,a0,a2
    13e0:	bfd5                	j	13d4 <u8g2_add_vector_y+0x14>

000013e2 <u8g2_add_vector_x>:
    13e2:	4785                	li	a5,1
    13e4:	00f68c63          	beq	a3,a5,13fc <u8g2_add_vector_x+0x1a>
    13e8:	c691                	beqz	a3,13f4 <u8g2_add_vector_x+0x12>
    13ea:	4789                	li	a5,2
    13ec:	00f68a63          	beq	a3,a5,1400 <u8g2_add_vector_x+0x1e>
    13f0:	9532                	add	a0,a0,a2
    13f2:	a011                	j	13f6 <u8g2_add_vector_x+0x14>
    13f4:	952e                	add	a0,a0,a1
    13f6:	0542                	slli	a0,a0,0x10
    13f8:	8141                	srli	a0,a0,0x10
    13fa:	8082                	ret
    13fc:	8d11                	sub	a0,a0,a2
    13fe:	bfe5                	j	13f6 <u8g2_add_vector_x+0x14>
    1400:	8d0d                	sub	a0,a0,a1
    1402:	bfd5                	j	13f6 <u8g2_add_vector_x+0x14>

00001404 <u8g2_font_decode_len>:
    1404:	dbdfe2ef          	jal	t0,1c0 <__riscv_save_12>
    1408:	06854483          	lbu	s1,104(a0)
    140c:	06954903          	lbu	s2,105(a0)
    1410:	1141                	addi	sp,sp,-16
    1412:	842a                	mv	s0,a0
    1414:	89ae                	mv	s3,a1
    1416:	8b32                	mv	s6,a2
    1418:	06a44b83          	lbu	s7,106(s0)
    141c:	0ff9fa93          	andi	s5,s3,255
    1420:	409b8a33          	sub	s4,s7,s1
    1424:	0ffa7a13          	andi	s4,s4,255
    1428:	013a7463          	bgeu	s4,s3,1430 <u8g2_font_decode_len+0x2c>
    142c:	0ffa7a93          	andi	s5,s4,255
    1430:	07044703          	lbu	a4,112(s0)
    1434:	01849c93          	slli	s9,s1,0x18
    1438:	01891c13          	slli	s8,s2,0x18
    143c:	06445503          	lhu	a0,100(s0)
    1440:	418cdc93          	srai	s9,s9,0x18
    1444:	418c5c13          	srai	s8,s8,0x18
    1448:	86ba                	mv	a3,a4
    144a:	8662                	mv	a2,s8
    144c:	85e6                	mv	a1,s9
    144e:	c63a                	sw	a4,12(sp)
    1450:	3f49                	jal	13e2 <u8g2_add_vector_x>
    1452:	4732                	lw	a4,12(sp)
    1454:	06645d83          	lhu	s11,102(s0)
    1458:	8662                	mv	a2,s8
    145a:	86ba                	mv	a3,a4
    145c:	8d2a                	mv	s10,a0
    145e:	85e6                	mv	a1,s9
    1460:	856e                	mv	a0,s11
    1462:	3fb9                	jal	13c0 <u8g2_add_vector_y>
    1464:	862a                	mv	a2,a0
    1466:	4732                	lw	a4,12(sp)
    1468:	020b0863          	beqz	s6,1498 <u8g2_font_decode_len+0x94>
    146c:	06e44783          	lbu	a5,110(s0)
    1470:	08f40923          	sb	a5,146(s0)
    1474:	86d6                	mv	a3,s5
    1476:	85ea                	mv	a1,s10
    1478:	8522                	mv	a0,s0
    147a:	2941                	jal	190a <u8g2_DrawHVLine>
    147c:	94ce                	add	s1,s1,s3
    147e:	0ff4f493          	andi	s1,s1,255
    1482:	0349e163          	bltu	s3,s4,14a4 <u8g2_font_decode_len+0xa0>
    1486:	417484b3          	sub	s1,s1,s7
    148a:	0905                	addi	s2,s2,1
    148c:	0ff4f993          	andi	s3,s1,255
    1490:	0ff97913          	andi	s2,s2,255
    1494:	4481                	li	s1,0
    1496:	b749                	j	1418 <u8g2_font_decode_len+0x14>
    1498:	06d44783          	lbu	a5,109(s0)
    149c:	f3e5                	bnez	a5,147c <u8g2_font_decode_len+0x78>
    149e:	06f44783          	lbu	a5,111(s0)
    14a2:	b7f9                	j	1470 <u8g2_font_decode_len+0x6c>
    14a4:	06940423          	sb	s1,104(s0)
    14a8:	078404a3          	sb	s8,105(s0)
    14ac:	0141                	addi	sp,sp,16
    14ae:	d4ffe06f          	j	1fc <__riscv_restore_12>

000014b2 <u8g2_font_decode_glyph>:
    14b2:	d17fe2ef          	jal	t0,1c8 <__riscv_save_10>
    14b6:	842a                	mv	s0,a0
    14b8:	06050a13          	addi	s4,a0,96
    14bc:	357d                	jal	136a <u8g2_font_setup_decode>
    14be:	07a44583          	lbu	a1,122(s0)
    14c2:	8552                	mv	a0,s4
    14c4:	06b40983          	lb	s3,107(s0)
    14c8:	3df9                	jal	13a6 <u8g2_font_decode_get_signed_bits>
    14ca:	07b44583          	lbu	a1,123(s0)
    14ce:	8c2a                	mv	s8,a0
    14d0:	8552                	mv	a0,s4
    14d2:	3dd1                	jal	13a6 <u8g2_font_decode_get_signed_bits>
    14d4:	07c44583          	lbu	a1,124(s0)
    14d8:	8b2a                	mv	s6,a0
    14da:	8552                	mv	a0,s4
    14dc:	35e9                	jal	13a6 <u8g2_font_decode_get_signed_bits>
    14de:	06a40483          	lb	s1,106(s0)
    14e2:	8aaa                	mv	s5,a0
    14e4:	08905d63          	blez	s1,157e <u8g2_font_decode_glyph+0xcc>
    14e8:	9b4e                	add	s6,s6,s3
    14ea:	07044b83          	lbu	s7,112(s0)
    14ee:	41600b33          	neg	s6,s6
    14f2:	06445503          	lhu	a0,100(s0)
    14f6:	0b62                	slli	s6,s6,0x18
    14f8:	418b5b13          	srai	s6,s6,0x18
    14fc:	86de                	mv	a3,s7
    14fe:	865a                	mv	a2,s6
    1500:	85e2                	mv	a1,s8
    1502:	35c5                	jal	13e2 <u8g2_add_vector_x>
    1504:	06a41223          	sh	a0,100(s0)
    1508:	892a                	mv	s2,a0
    150a:	06645503          	lhu	a0,102(s0)
    150e:	865a                	mv	a2,s6
    1510:	86de                	mv	a3,s7
    1512:	85e2                	mv	a1,s8
    1514:	3575                	jal	13c0 <u8g2_add_vector_y>
    1516:	06a41323          	sh	a0,102(s0)
    151a:	4785                	li	a5,1
    151c:	862a                	mv	a2,a0
    151e:	06fb8d63          	beq	s7,a5,1598 <u8g2_font_decode_glyph+0xe6>
    1522:	060b8163          	beqz	s7,1584 <u8g2_font_decode_glyph+0xd2>
    1526:	4789                	li	a5,2
    1528:	08fb8863          	beq	s7,a5,15b8 <u8g2_font_decode_glyph+0x106>
    152c:	478d                	li	a5,3
    152e:	0afb8c63          	beq	s7,a5,15e6 <u8g2_font_decode_glyph+0x134>
    1532:	872a                	mv	a4,a0
    1534:	86ca                	mv	a3,s2
    1536:	85ca                	mv	a1,s2
    1538:	8522                	mv	a0,s0
    153a:	2309                	jal	1a3c <u8g2_IsIntersection>
    153c:	c129                	beqz	a0,157e <u8g2_font_decode_glyph+0xcc>
    153e:	06041423          	sh	zero,104(s0)
    1542:	07644583          	lbu	a1,118(s0)
    1546:	8552                	mv	a0,s4
    1548:	33f9                	jal	1316 <u8g2_font_decode_get_unsigned_bits>
    154a:	07744583          	lbu	a1,119(s0)
    154e:	892a                	mv	s2,a0
    1550:	8552                	mv	a0,s4
    1552:	33d1                	jal	1316 <u8g2_font_decode_get_unsigned_bits>
    1554:	84aa                	mv	s1,a0
    1556:	4601                	li	a2,0
    1558:	85ca                	mv	a1,s2
    155a:	8522                	mv	a0,s0
    155c:	3565                	jal	1404 <u8g2_font_decode_len>
    155e:	85a6                	mv	a1,s1
    1560:	8522                	mv	a0,s0
    1562:	4605                	li	a2,1
    1564:	3545                	jal	1404 <u8g2_font_decode_len>
    1566:	4585                	li	a1,1
    1568:	8552                	mv	a0,s4
    156a:	3375                	jal	1316 <u8g2_font_decode_get_unsigned_bits>
    156c:	f56d                	bnez	a0,1556 <u8g2_font_decode_glyph+0xa4>
    156e:	06940783          	lb	a5,105(s0)
    1572:	fd37c8e3          	blt	a5,s3,1542 <u8g2_font_decode_glyph+0x90>
    1576:	06e44783          	lbu	a5,110(s0)
    157a:	08f40923          	sb	a5,146(s0)
    157e:	8556                	mv	a0,s5
    1580:	c81fe06f          	j	200 <__riscv_restore_10>
    1584:	94ca                	add	s1,s1,s2
    1586:	01049693          	slli	a3,s1,0x10
    158a:	013504b3          	add	s1,a0,s3
    158e:	01049713          	slli	a4,s1,0x10
    1592:	82c1                	srli	a3,a3,0x10
    1594:	8341                	srli	a4,a4,0x10
    1596:	b745                	j	1536 <u8g2_font_decode_glyph+0x84>
    1598:	413907b3          	sub	a5,s2,s3
    159c:	94aa                	add	s1,s1,a0
    159e:	0905                	addi	s2,s2,1
    15a0:	01091693          	slli	a3,s2,0x10
    15a4:	01049713          	slli	a4,s1,0x10
    15a8:	0785                	addi	a5,a5,1
    15aa:	82c1                	srli	a3,a3,0x10
    15ac:	8341                	srli	a4,a4,0x10
    15ae:	01079913          	slli	s2,a5,0x10
    15b2:	01095913          	srli	s2,s2,0x10
    15b6:	b741                	j	1536 <u8g2_font_decode_glyph+0x84>
    15b8:	4705                	li	a4,1
    15ba:	409704b3          	sub	s1,a4,s1
    15be:	009907b3          	add	a5,s2,s1
    15c2:	41370733          	sub	a4,a4,s3
    15c6:	00190493          	addi	s1,s2,1
    15ca:	01049693          	slli	a3,s1,0x10
    15ce:	00e505b3          	add	a1,a0,a4
    15d2:	00150493          	addi	s1,a0,1
    15d6:	01049713          	slli	a4,s1,0x10
    15da:	01059613          	slli	a2,a1,0x10
    15de:	82c1                	srli	a3,a3,0x10
    15e0:	8341                	srli	a4,a4,0x10
    15e2:	8241                	srli	a2,a2,0x10
    15e4:	b7e9                	j	15ae <u8g2_font_decode_glyph+0xfc>
    15e6:	409504b3          	sub	s1,a0,s1
    15ea:	00150613          	addi	a2,a0,1
    15ee:	013906b3          	add	a3,s2,s3
    15f2:	0485                	addi	s1,s1,1
    15f4:	01061713          	slli	a4,a2,0x10
    15f8:	06c2                	slli	a3,a3,0x10
    15fa:	01049613          	slli	a2,s1,0x10
    15fe:	82c1                	srli	a3,a3,0x10
    1600:	8341                	srli	a4,a4,0x10
    1602:	8241                	srli	a2,a2,0x10
    1604:	bf0d                	j	1536 <u8g2_font_decode_glyph+0x84>

00001606 <u8g2_font_get_glyph_data>:
    1606:	4d3c                	lw	a5,88(a0)
    1608:	0ff00713          	li	a4,255
    160c:	07dd                	addi	a5,a5,23
    160e:	02b76a63          	bltu	a4,a1,1642 <u8g2_font_get_glyph_data+0x3c>
    1612:	06000713          	li	a4,96
    1616:	00b77f63          	bgeu	a4,a1,1634 <u8g2_font_get_glyph_data+0x2e>
    161a:	08855703          	lhu	a4,136(a0)
    161e:	97ba                	add	a5,a5,a4
    1620:	0017c703          	lbu	a4,1(a5) # 8001 <_data_lma+0x32e9>
    1624:	cb2d                	beqz	a4,1696 <u8g2_font_get_glyph_data+0x90>
    1626:	0007c683          	lbu	a3,0(a5)
    162a:	feb69ae3          	bne	a3,a1,161e <u8g2_font_get_glyph_data+0x18>
    162e:	00278513          	addi	a0,a5,2
    1632:	8082                	ret
    1634:	04000713          	li	a4,64
    1638:	feb774e3          	bgeu	a4,a1,1620 <u8g2_font_get_glyph_data+0x1a>
    163c:	08655703          	lhu	a4,134(a0)
    1640:	bff9                	j	161e <u8g2_font_get_glyph_data+0x18>
    1642:	baffe2ef          	jal	t0,1f0 <__riscv_save_0>
    1646:	08a55403          	lhu	s0,138(a0)
    164a:	84ae                	mv	s1,a1
    164c:	943e                	add	s0,s0,a5
    164e:	8922                	mv	s2,s0
    1650:	4581                	li	a1,0
    1652:	854a                	mv	a0,s2
    1654:	bf9ff0ef          	jal	ra,124c <u8g2_font_get_word>
    1658:	942a                	add	s0,s0,a0
    165a:	4589                	li	a1,2
    165c:	854a                	mv	a0,s2
    165e:	befff0ef          	jal	ra,124c <u8g2_font_get_word>
    1662:	0911                	addi	s2,s2,4
    1664:	fe9566e3          	bltu	a0,s1,1650 <u8g2_font_get_glyph_data+0x4a>
    1668:	00144783          	lbu	a5,1(s0)
    166c:	00044703          	lbu	a4,0(s0)
    1670:	07a2                	slli	a5,a5,0x8
    1672:	8fd9                	or	a5,a5,a4
    1674:	00879713          	slli	a4,a5,0x8
    1678:	83a1                	srli	a5,a5,0x8
    167a:	8fd9                	or	a5,a5,a4
    167c:	07c2                	slli	a5,a5,0x10
    167e:	83c1                	srli	a5,a5,0x10
    1680:	cf89                	beqz	a5,169a <u8g2_font_get_glyph_data+0x94>
    1682:	00f49663          	bne	s1,a5,168e <u8g2_font_get_glyph_data+0x88>
    1686:	00340513          	addi	a0,s0,3
    168a:	b8bfe06f          	j	214 <__riscv_restore_0>
    168e:	00244783          	lbu	a5,2(s0)
    1692:	943e                	add	s0,s0,a5
    1694:	bfd1                	j	1668 <u8g2_font_get_glyph_data+0x62>
    1696:	4501                	li	a0,0
    1698:	8082                	ret
    169a:	4501                	li	a0,0
    169c:	b7fd                	j	168a <u8g2_font_get_glyph_data+0x84>

0000169e <u8g2_GetGlyphWidth>:
    169e:	b53fe2ef          	jal	t0,1f0 <__riscv_save_0>
    16a2:	842a                	mv	s0,a0
    16a4:	378d                	jal	1606 <u8g2_font_get_glyph_data>
    16a6:	c915                	beqz	a0,16da <u8g2_GetGlyphWidth+0x3c>
    16a8:	85aa                	mv	a1,a0
    16aa:	8522                	mv	a0,s0
    16ac:	cbfff0ef          	jal	ra,136a <u8g2_font_setup_decode>
    16b0:	07a44583          	lbu	a1,122(s0)
    16b4:	06040493          	addi	s1,s0,96
    16b8:	8526                	mv	a0,s1
    16ba:	cedff0ef          	jal	ra,13a6 <u8g2_font_decode_get_signed_bits>
    16be:	07b44583          	lbu	a1,123(s0)
    16c2:	08a40823          	sb	a0,144(s0)
    16c6:	8526                	mv	a0,s1
    16c8:	cdfff0ef          	jal	ra,13a6 <u8g2_font_decode_get_signed_bits>
    16cc:	07c44583          	lbu	a1,124(s0)
    16d0:	8526                	mv	a0,s1
    16d2:	cd5ff0ef          	jal	ra,13a6 <u8g2_font_decode_get_signed_bits>
    16d6:	b3ffe06f          	j	214 <__riscv_restore_0>
    16da:	4501                	li	a0,0
    16dc:	bfed                	j	16d6 <u8g2_GetGlyphWidth+0x38>

000016de <u8g2_string_width>:
    16de:	aebfe2ef          	jal	t0,1c8 <__riscv_save_10>
    16e2:	06050523          	sb	zero,106(a0)
    16e6:	84aa                	mv	s1,a0
    16e8:	8aae                	mv	s5,a1
    16ea:	2d8d                	jal	1d5c <u8x8_utf8_init>
    16ec:	67c1                	lui	a5,0x10
    16ee:	fc000913          	li	s2,-64
    16f2:	4a01                	li	s4,0
    16f4:	4401                	li	s0,0
    16f6:	fff78b13          	addi	s6,a5,-1 # ffff <_data_lma+0xb2e7>
    16fa:	ffe78993          	addi	s3,a5,-2
    16fe:	fc000b93          	li	s7,-64
    1702:	000ac583          	lbu	a1,0(s5)
    1706:	40dc                	lw	a5,4(s1)
    1708:	8526                	mv	a0,s1
    170a:	9782                	jalr	a5
    170c:	85aa                	mv	a1,a0
    170e:	03650363          	beq	a0,s6,1734 <u8g2_string_width+0x56>
    1712:	0a85                	addi	s5,s5,1
    1714:	ff3507e3          	beq	a0,s3,1702 <u8g2_string_width+0x24>
    1718:	8526                	mv	a0,s1
    171a:	3751                	jal	169e <u8g2_GetGlyphWidth>
    171c:	01051a13          	slli	s4,a0,0x10
    1720:	010a5a13          	srli	s4,s4,0x10
    1724:	01791463          	bne	s2,s7,172c <u8g2_string_width+0x4e>
    1728:	09048903          	lb	s2,144(s1)
    172c:	9452                	add	s0,s0,s4
    172e:	0442                	slli	s0,s0,0x10
    1730:	8041                	srli	s0,s0,0x10
    1732:	bfc1                	j	1702 <u8g2_string_width+0x24>
    1734:	06a48783          	lb	a5,106(s1)
    1738:	cf91                	beqz	a5,1754 <u8g2_string_width+0x76>
    173a:	09048703          	lb	a4,144(s1)
    173e:	97ba                	add	a5,a5,a4
    1740:	943e                	add	s0,s0,a5
    1742:	41440433          	sub	s0,s0,s4
    1746:	0442                	slli	s0,s0,0x10
    1748:	8041                	srli	s0,s0,0x10
    174a:	01205563          	blez	s2,1754 <u8g2_string_width+0x76>
    174e:	944a                	add	s0,s0,s2
    1750:	0442                	slli	s0,s0,0x10
    1752:	8041                	srli	s0,s0,0x10
    1754:	8522                	mv	a0,s0
    1756:	aabfe06f          	j	200 <__riscv_restore_10>

0000175a <u8g2_SetFontMode>:
    175a:	06b506a3          	sb	a1,109(a0)
    175e:	8082                	ret

00001760 <u8g2_DrawGlyph>:
    1760:	a77fe2ef          	jal	t0,1d6 <__riscv_save_4>
    1764:	07054783          	lbu	a5,112(a0)
    1768:	4705                	li	a4,1
    176a:	842a                	mv	s0,a0
    176c:	892e                	mv	s2,a1
    176e:	84b2                	mv	s1,a2
    1770:	89b6                	mv	s3,a3
    1772:	04e78063          	beq	a5,a4,17b2 <u8g2_DrawGlyph+0x52>
    1776:	cb85                	beqz	a5,17a6 <u8g2_DrawGlyph+0x46>
    1778:	4709                	li	a4,2
    177a:	04e78463          	beq	a5,a4,17c2 <u8g2_DrawGlyph+0x62>
    177e:	470d                	li	a4,3
    1780:	04e78563          	beq	a5,a4,17ca <u8g2_DrawGlyph+0x6a>
    1784:	85ce                	mv	a1,s3
    1786:	07241223          	sh	s2,100(s0)
    178a:	06941323          	sh	s1,102(s0)
    178e:	8522                	mv	a0,s0
    1790:	3d9d                	jal	1606 <u8g2_font_get_glyph_data>
    1792:	85aa                	mv	a1,a0
    1794:	4501                	li	a0,0
    1796:	c591                	beqz	a1,17a2 <u8g2_DrawGlyph+0x42>
    1798:	8522                	mv	a0,s0
    179a:	d19ff0ef          	jal	ra,14b2 <u8g2_font_decode_glyph>
    179e:	0542                	slli	a0,a0,0x10
    17a0:	8141                	srli	a0,a0,0x10
    17a2:	a69fe06f          	j	20a <__riscv_restore_4>
    17a6:	4d7c                	lw	a5,92(a0)
    17a8:	9782                	jalr	a5
    17aa:	94aa                	add	s1,s1,a0
    17ac:	04c2                	slli	s1,s1,0x10
    17ae:	80c1                	srli	s1,s1,0x10
    17b0:	bfd1                	j	1784 <u8g2_DrawGlyph+0x24>
    17b2:	4d7c                	lw	a5,92(a0)
    17b4:	9782                	jalr	a5
    17b6:	40a90933          	sub	s2,s2,a0
    17ba:	0942                	slli	s2,s2,0x10
    17bc:	01095913          	srli	s2,s2,0x10
    17c0:	b7d1                	j	1784 <u8g2_DrawGlyph+0x24>
    17c2:	4d7c                	lw	a5,92(a0)
    17c4:	9782                	jalr	a5
    17c6:	8c89                	sub	s1,s1,a0
    17c8:	b7d5                	j	17ac <u8g2_DrawGlyph+0x4c>
    17ca:	4d7c                	lw	a5,92(a0)
    17cc:	9782                	jalr	a5
    17ce:	992a                	add	s2,s2,a0
    17d0:	b7ed                	j	17ba <u8g2_DrawGlyph+0x5a>

000017d2 <u8g2_draw_string>:
    17d2:	9f7fe2ef          	jal	t0,1c8 <__riscv_save_10>
    17d6:	6941                	lui	s2,0x10
    17d8:	8caa                	mv	s9,a0
    17da:	842e                	mv	s0,a1
    17dc:	84b2                	mv	s1,a2
    17de:	89b6                	mv	s3,a3
    17e0:	fff90a13          	addi	s4,s2,-1 # ffff <_data_lma+0xb2e7>
    17e4:	2ba5                	jal	1d5c <u8x8_utf8_init>
    17e6:	4c01                	li	s8,0
    17e8:	1979                	addi	s2,s2,-2
    17ea:	4a85                	li	s5,1
    17ec:	4b09                	li	s6,2
    17ee:	4b8d                	li	s7,3
    17f0:	004ca783          	lw	a5,4(s9)
    17f4:	0009c583          	lbu	a1,0(s3)
    17f8:	8566                	mv	a0,s9
    17fa:	9782                	jalr	a5
    17fc:	86aa                	mv	a3,a0
    17fe:	05450363          	beq	a0,s4,1844 <u8g2_draw_string+0x72>
    1802:	0985                	addi	s3,s3,1
    1804:	ff2506e3          	beq	a0,s2,17f0 <u8g2_draw_string+0x1e>
    1808:	8626                	mv	a2,s1
    180a:	85a2                	mv	a1,s0
    180c:	8566                	mv	a0,s9
    180e:	3f89                	jal	1760 <u8g2_DrawGlyph>
    1810:	070cc783          	lbu	a5,112(s9)
    1814:	03578063          	beq	a5,s5,1834 <u8g2_draw_string+0x62>
    1818:	cb91                	beqz	a5,182c <u8g2_draw_string+0x5a>
    181a:	03678163          	beq	a5,s6,183c <u8g2_draw_string+0x6a>
    181e:	03778163          	beq	a5,s7,1840 <u8g2_draw_string+0x6e>
    1822:	9c2a                	add	s8,s8,a0
    1824:	0c42                	slli	s8,s8,0x10
    1826:	010c5c13          	srli	s8,s8,0x10
    182a:	b7d9                	j	17f0 <u8g2_draw_string+0x1e>
    182c:	942a                	add	s0,s0,a0
    182e:	0442                	slli	s0,s0,0x10
    1830:	8041                	srli	s0,s0,0x10
    1832:	bfc5                	j	1822 <u8g2_draw_string+0x50>
    1834:	94aa                	add	s1,s1,a0
    1836:	04c2                	slli	s1,s1,0x10
    1838:	80c1                	srli	s1,s1,0x10
    183a:	b7e5                	j	1822 <u8g2_draw_string+0x50>
    183c:	8c09                	sub	s0,s0,a0
    183e:	bfc5                	j	182e <u8g2_draw_string+0x5c>
    1840:	8c89                	sub	s1,s1,a0
    1842:	bfd5                	j	1836 <u8g2_draw_string+0x64>
    1844:	8562                	mv	a0,s8
    1846:	9bbfe06f          	j	200 <__riscv_restore_10>

0000184a <u8g2_DrawUTF8>:
    184a:	9a7fe2ef          	jal	t0,1f0 <__riscv_save_0>
    184e:	000027b7          	lui	a5,0x2
    1852:	cbc78793          	addi	a5,a5,-836 # 1cbc <u8x8_utf8_next>
    1856:	c15c                	sw	a5,4(a0)
    1858:	3fad                	jal	17d2 <u8g2_draw_string>
    185a:	9bbfe06f          	j	214 <__riscv_restore_0>

0000185e <u8g2_UpdateRefHeight>:
    185e:	4d3c                	lw	a5,88(a0)
    1860:	cba9                	beqz	a5,18b2 <u8g2_UpdateRefHeight+0x54>
    1862:	08150603          	lb	a2,129(a0)
    1866:	08250683          	lb	a3,130(a0)
    186a:	08d54783          	lbu	a5,141(a0)
    186e:	08c50723          	sb	a2,142(a0)
    1872:	08d507a3          	sb	a3,143(a0)
    1876:	cf95                	beqz	a5,18b2 <u8g2_UpdateRefHeight+0x54>
    1878:	4705                	li	a4,1
    187a:	00e79f63          	bne	a5,a4,1898 <u8g2_UpdateRefHeight+0x3a>
    187e:	08350783          	lb	a5,131(a0)
    1882:	00f65463          	bge	a2,a5,188a <u8g2_UpdateRefHeight+0x2c>
    1886:	08f50723          	sb	a5,142(a0)
    188a:	08450783          	lb	a5,132(a0)
    188e:	02d7d263          	bge	a5,a3,18b2 <u8g2_UpdateRefHeight+0x54>
    1892:	08f507a3          	sb	a5,143(a0)
    1896:	8082                	ret
    1898:	07e50783          	lb	a5,126(a0)
    189c:	08050703          	lb	a4,128(a0)
    18a0:	97ba                	add	a5,a5,a4
    18a2:	00f65463          	bge	a2,a5,18aa <u8g2_UpdateRefHeight+0x4c>
    18a6:	08f50723          	sb	a5,142(a0)
    18aa:	00d75463          	bge	a4,a3,18b2 <u8g2_UpdateRefHeight+0x54>
    18ae:	08e507a3          	sb	a4,143(a0)
    18b2:	8082                	ret

000018b4 <u8g2_SetFontPosBaseline>:
    18b4:	000017b7          	lui	a5,0x1
    18b8:	26078793          	addi	a5,a5,608 # 1260 <u8g2_font_calc_vref_font>
    18bc:	cd7c                	sw	a5,92(a0)
    18be:	8082                	ret

000018c0 <u8g2_SetFont>:
    18c0:	4d38                	lw	a4,88(a0)
    18c2:	00b70e63          	beq	a4,a1,18de <u8g2_SetFont+0x1e>
    18c6:	92bfe2ef          	jal	t0,1f0 <__riscv_save_0>
    18ca:	842a                	mv	s0,a0
    18cc:	cc2c                	sw	a1,88(s0)
    18ce:	07450513          	addi	a0,a0,116
    18d2:	993ff0ef          	jal	ra,1264 <u8g2_read_font_info>
    18d6:	8522                	mv	a0,s0
    18d8:	3759                	jal	185e <u8g2_UpdateRefHeight>
    18da:	93bfe06f          	j	214 <__riscv_restore_0>
    18de:	8082                	ret

000018e0 <u8g2_GetUTF8Width>:
    18e0:	911fe2ef          	jal	t0,1f0 <__riscv_save_0>
    18e4:	000027b7          	lui	a5,0x2
    18e8:	cbc78793          	addi	a5,a5,-836 # 1cbc <u8x8_utf8_next>
    18ec:	c15c                	sw	a5,4(a0)
    18ee:	3bc5                	jal	16de <u8g2_string_width>
    18f0:	925fe06f          	j	214 <__riscv_restore_0>

000018f4 <u8g2_draw_hv_line_2dir>:
    18f4:	8fdfe2ef          	jal	t0,1f0 <__riscv_save_0>
    18f8:	03e55783          	lhu	a5,62(a0)
    18fc:	8e1d                	sub	a2,a2,a5
    18fe:	555c                	lw	a5,44(a0)
    1900:	0642                	slli	a2,a2,0x10
    1902:	8241                	srli	a2,a2,0x10
    1904:	9782                	jalr	a5
    1906:	90ffe06f          	j	214 <__riscv_restore_0>

0000190a <u8g2_DrawHVLine>:
    190a:	08c54783          	lbu	a5,140(a0)
    190e:	cbc1                	beqz	a5,199e <u8g2_DrawHVLine+0x94>
    1910:	c6d9                	beqz	a3,199e <u8g2_DrawHVLine+0x94>
    1912:	4785                	li	a5,1
    1914:	00d7f963          	bgeu	a5,a3,1926 <u8g2_DrawHVLine+0x1c>
    1918:	4789                	li	a5,2
    191a:	06f71763          	bne	a4,a5,1988 <u8g2_DrawHVLine+0x7e>
    191e:	0585                	addi	a1,a1,1
    1920:	8d95                	sub	a1,a1,a3
    1922:	05c2                	slli	a1,a1,0x10
    1924:	81c1                	srli	a1,a1,0x10
    1926:	8b05                	andi	a4,a4,1
    1928:	ef25                	bnez	a4,19a0 <u8g2_DrawHVLine+0x96>
    192a:	04c55783          	lhu	a5,76(a0)
    192e:	06f66863          	bltu	a2,a5,199e <u8g2_DrawHVLine+0x94>
    1932:	04e55783          	lhu	a5,78(a0)
    1936:	06f67463          	bgeu	a2,a5,199e <u8g2_DrawHVLine+0x94>
    193a:	96ae                	add	a3,a3,a1
    193c:	06c2                	slli	a3,a3,0x10
    193e:	82c1                	srli	a3,a3,0x10
    1940:	04855783          	lhu	a5,72(a0)
    1944:	04a55803          	lhu	a6,74(a0)
    1948:	04b6f963          	bgeu	a3,a1,199a <u8g2_DrawHVLine+0x90>
    194c:	0505f663          	bgeu	a1,a6,1998 <u8g2_DrawHVLine+0x8e>
    1950:	fff80693          	addi	a3,a6,-1
    1954:	06c2                	slli	a3,a3,0x10
    1956:	82c1                	srli	a3,a3,0x10
    1958:	04d7f363          	bgeu	a5,a3,199e <u8g2_DrawHVLine+0x94>
    195c:	88be                	mv	a7,a5
    195e:	00b7f363          	bgeu	a5,a1,1964 <u8g2_DrawHVLine+0x5a>
    1962:	88ae                	mv	a7,a1
    1964:	01089593          	slli	a1,a7,0x10
    1968:	81c1                	srli	a1,a1,0x10
    196a:	87c2                	mv	a5,a6
    196c:	0106f363          	bgeu	a3,a6,1972 <u8g2_DrawHVLine+0x68>
    1970:	87b6                	mv	a5,a3
    1972:	40b786b3          	sub	a3,a5,a1
    1976:	06c2                	slli	a3,a3,0x10
    1978:	82c1                	srli	a3,a3,0x10
    197a:	877fe2ef          	jal	t0,1f0 <__riscv_save_0>
    197e:	591c                	lw	a5,48(a0)
    1980:	479c                	lw	a5,8(a5)
    1982:	9782                	jalr	a5
    1984:	891fe06f          	j	214 <__riscv_restore_0>
    1988:	478d                	li	a5,3
    198a:	f8f71ee3          	bne	a4,a5,1926 <u8g2_DrawHVLine+0x1c>
    198e:	0605                	addi	a2,a2,1
    1990:	8e15                	sub	a2,a2,a3
    1992:	0642                	slli	a2,a2,0x10
    1994:	8241                	srli	a2,a2,0x10
    1996:	bf41                	j	1926 <u8g2_DrawHVLine+0x1c>
    1998:	85be                	mv	a1,a5
    199a:	fb05efe3          	bltu	a1,a6,1958 <u8g2_DrawHVLine+0x4e>
    199e:	8082                	ret
    19a0:	04855783          	lhu	a5,72(a0)
    19a4:	fef5ede3          	bltu	a1,a5,199e <u8g2_DrawHVLine+0x94>
    19a8:	04a55783          	lhu	a5,74(a0)
    19ac:	fef5f9e3          	bgeu	a1,a5,199e <u8g2_DrawHVLine+0x94>
    19b0:	96b2                	add	a3,a3,a2
    19b2:	06c2                	slli	a3,a3,0x10
    19b4:	82c1                	srli	a3,a3,0x10
    19b6:	04c55783          	lhu	a5,76(a0)
    19ba:	04e55803          	lhu	a6,78(a0)
    19be:	02c6f963          	bgeu	a3,a2,19f0 <u8g2_DrawHVLine+0xe6>
    19c2:	03067663          	bgeu	a2,a6,19ee <u8g2_DrawHVLine+0xe4>
    19c6:	fff80693          	addi	a3,a6,-1
    19ca:	06c2                	slli	a3,a3,0x10
    19cc:	82c1                	srli	a3,a3,0x10
    19ce:	fcd7f8e3          	bgeu	a5,a3,199e <u8g2_DrawHVLine+0x94>
    19d2:	88be                	mv	a7,a5
    19d4:	00c7f363          	bgeu	a5,a2,19da <u8g2_DrawHVLine+0xd0>
    19d8:	88b2                	mv	a7,a2
    19da:	01089613          	slli	a2,a7,0x10
    19de:	8241                	srli	a2,a2,0x10
    19e0:	87c2                	mv	a5,a6
    19e2:	0106f363          	bgeu	a3,a6,19e8 <u8g2_DrawHVLine+0xde>
    19e6:	87b6                	mv	a5,a3
    19e8:	40c786b3          	sub	a3,a5,a2
    19ec:	b769                	j	1976 <u8g2_DrawHVLine+0x6c>
    19ee:	863e                	mv	a2,a5
    19f0:	fd066fe3          	bltu	a2,a6,19ce <u8g2_DrawHVLine+0xc4>
    19f4:	b76d                	j	199e <u8g2_DrawHVLine+0x94>

000019f6 <u8g2_DrawHLine>:
    19f6:	ffafe2ef          	jal	t0,1f0 <__riscv_save_0>
    19fa:	4701                	li	a4,0
    19fc:	3739                	jal	190a <u8g2_DrawHVLine>
    19fe:	817fe06f          	j	214 <__riscv_restore_0>

00001a02 <u8g2_DrawVLine>:
    1a02:	feefe2ef          	jal	t0,1f0 <__riscv_save_0>
    1a06:	4705                	li	a4,1
    1a08:	3709                	jal	190a <u8g2_DrawHVLine>
    1a0a:	80bfe06f          	j	214 <__riscv_restore_0>

00001a0e <u8g2_SetDrawColor>:
    1a0e:	4789                	li	a5,2
    1a10:	00b7e563          	bltu	a5,a1,1a1a <u8g2_SetDrawColor+0xc>
    1a14:	08b50923          	sb	a1,146(a0)
    1a18:	8082                	ret
    1a1a:	4785                	li	a5,1
    1a1c:	08f50923          	sb	a5,146(a0)
    1a20:	8082                	ret

00001a22 <u8g2_is_intersection_decision_tree>:
    1a22:	00b67963          	bgeu	a2,a1,1a34 <u8g2_is_intersection_decision_tree+0x12>
    1a26:	4785                	li	a5,1
    1a28:	00d56463          	bltu	a0,a3,1a30 <u8g2_is_intersection_decision_tree+0xe>
    1a2c:	00c6b7b3          	sltu	a5,a3,a2
    1a30:	853e                	mv	a0,a5
    1a32:	8082                	ret
    1a34:	fed56ce3          	bltu	a0,a3,1a2c <u8g2_is_intersection_decision_tree+0xa>
    1a38:	4781                	li	a5,0
    1a3a:	bfdd                	j	1a30 <u8g2_is_intersection_decision_tree+0xe>

00001a3c <u8g2_IsIntersection>:
    1a3c:	fb4fe2ef          	jal	t0,1f0 <__riscv_save_0>
    1a40:	842a                	mv	s0,a0
    1a42:	84ae                	mv	s1,a1
    1a44:	04e55583          	lhu	a1,78(a0)
    1a48:	04c55503          	lhu	a0,76(a0)
    1a4c:	8936                	mv	s2,a3
    1a4e:	86ba                	mv	a3,a4
    1a50:	3fc9                	jal	1a22 <u8g2_is_intersection_decision_tree>
    1a52:	c901                	beqz	a0,1a62 <u8g2_IsIntersection+0x26>
    1a54:	04a45583          	lhu	a1,74(s0)
    1a58:	04845503          	lhu	a0,72(s0)
    1a5c:	86ca                	mv	a3,s2
    1a5e:	8626                	mv	a2,s1
    1a60:	37c9                	jal	1a22 <u8g2_is_intersection_decision_tree>
    1a62:	fb2fe06f          	j	214 <__riscv_restore_0>

00001a66 <u8g2_ll_hvline_vertical_top_lsb>:
    1a66:	09254303          	lbu	t1,146(a0)
    1a6a:	00767893          	andi	a7,a2,7
    1a6e:	4785                	li	a5,1
    1a70:	01179833          	sll	a6,a5,a7
    1a74:	0ff87813          	andi	a6,a6,255
    1a78:	4e01                	li	t3,0
    1a7a:	0067e563          	bltu	a5,t1,1a84 <u8g2_ll_hvline_vertical_top_lsb+0x1e>
    1a7e:	8e42                	mv	t3,a6
    1a80:	04f30c63          	beq	t1,a5,1ad8 <u8g2_ll_hvline_vertical_top_lsb+0x72>
    1a84:	00052303          	lw	t1,0(a0)
    1a88:	9a61                	andi	a2,a2,-8
    1a8a:	595c                	lw	a5,52(a0)
    1a8c:	01034303          	lbu	t1,16(t1)
    1a90:	02660633          	mul	a2,a2,t1
    1a94:	0642                	slli	a2,a2,0x10
    1a96:	8241                	srli	a2,a2,0x10
    1a98:	95b2                	add	a1,a1,a2
    1a9a:	95be                	add	a1,a1,a5
    1a9c:	c321                	beqz	a4,1adc <u8g2_ll_hvline_vertical_top_lsb+0x76>
    1a9e:	4705                	li	a4,1
    1aa0:	0005c783          	lbu	a5,0(a1)
    1aa4:	0885                	addi	a7,a7,1
    1aa6:	16fd                	addi	a3,a3,-1
    1aa8:	00fe67b3          	or	a5,t3,a5
    1aac:	00f847b3          	xor	a5,a6,a5
    1ab0:	06c2                	slli	a3,a3,0x10
    1ab2:	00f58023          	sb	a5,0(a1)
    1ab6:	0078f893          	andi	a7,a7,7
    1aba:	82c1                	srli	a3,a3,0x10
    1abc:	04089263          	bnez	a7,1b00 <u8g2_ll_hvline_vertical_top_lsb+0x9a>
    1ac0:	03a55603          	lhu	a2,58(a0)
    1ac4:	09254783          	lbu	a5,146(a0)
    1ac8:	95b2                	add	a1,a1,a2
    1aca:	00f76563          	bltu	a4,a5,1ad4 <u8g2_ll_hvline_vertical_top_lsb+0x6e>
    1ace:	4e05                	li	t3,1
    1ad0:	02e78f63          	beq	a5,a4,1b0e <u8g2_ll_hvline_vertical_top_lsb+0xa8>
    1ad4:	4805                	li	a6,1
    1ad6:	a825                	j	1b0e <u8g2_ll_hvline_vertical_top_lsb+0xa8>
    1ad8:	4801                	li	a6,0
    1ada:	b76d                	j	1a84 <u8g2_ll_hvline_vertical_top_lsb+0x1e>
    1adc:	96ae                	add	a3,a3,a1
    1ade:	06c2                	slli	a3,a3,0x10
    1ae0:	82c1                	srli	a3,a3,0x10
    1ae2:	0005c783          	lbu	a5,0(a1)
    1ae6:	0585                	addi	a1,a1,1
    1ae8:	00fe67b3          	or	a5,t3,a5
    1aec:	00f847b3          	xor	a5,a6,a5
    1af0:	fef58fa3          	sb	a5,-1(a1)
    1af4:	01059793          	slli	a5,a1,0x10
    1af8:	83c1                	srli	a5,a5,0x10
    1afa:	fed794e3          	bne	a5,a3,1ae2 <u8g2_ll_hvline_vertical_top_lsb+0x7c>
    1afe:	8082                	ret
    1b00:	001e1793          	slli	a5,t3,0x1
    1b04:	0806                	slli	a6,a6,0x1
    1b06:	0ff7fe13          	andi	t3,a5,255
    1b0a:	0ff87813          	andi	a6,a6,255
    1b0e:	fac9                	bnez	a3,1aa0 <u8g2_ll_hvline_vertical_top_lsb+0x3a>
    1b10:	8082                	ret

00001b12 <u8g2_update_dimension_common>:
    1b12:	03854583          	lbu	a1,56(a0)
    1b16:	4114                	lw	a3,0(a0)
    1b18:	03954883          	lbu	a7,57(a0)
    1b1c:	01059713          	slli	a4,a1,0x10
    1b20:	8341                	srli	a4,a4,0x10
    1b22:	00371793          	slli	a5,a4,0x3
    1b26:	02f51e23          	sh	a5,60(a0)
    1b2a:	0106c783          	lbu	a5,16(a3)
    1b2e:	01089813          	slli	a6,a7,0x10
    1b32:	01085813          	srli	a6,a6,0x10
    1b36:	078e                	slli	a5,a5,0x3
    1b38:	02f51d23          	sh	a5,58(a0)
    1b3c:	00381793          	slli	a5,a6,0x3
    1b40:	02f51f23          	sh	a5,62(a0)
    1b44:	0116c603          	lbu	a2,17(a3)
    1b48:	95c6                	add	a1,a1,a7
    1b4a:	00b65663          	bge	a2,a1,1b56 <u8g2_update_dimension_common+0x44>
    1b4e:	41060733          	sub	a4,a2,a6
    1b52:	0742                	slli	a4,a4,0x10
    1b54:	8341                	srli	a4,a4,0x10
    1b56:	070e                	slli	a4,a4,0x3
    1b58:	04f51023          	sh	a5,64(a0)
    1b5c:	97ba                	add	a5,a5,a4
    1b5e:	04f51123          	sh	a5,66(a0)
    1b62:	0146d783          	lhu	a5,20(a3)
    1b66:	04f51223          	sh	a5,68(a0)
    1b6a:	0166d783          	lhu	a5,22(a3)
    1b6e:	04f51323          	sh	a5,70(a0)
    1b72:	8082                	ret

00001b74 <u8g2_draw_l90_r2>:
    1b74:	e7cfe2ef          	jal	t0,1f0 <__riscv_save_0>
    1b78:	04655783          	lhu	a5,70(a0)
    1b7c:	40c78633          	sub	a2,a5,a2
    1b80:	04455783          	lhu	a5,68(a0)
    1b84:	0642                	slli	a2,a2,0x10
    1b86:	8241                	srli	a2,a2,0x10
    1b88:	40b785b3          	sub	a1,a5,a1
    1b8c:	05c2                	slli	a1,a1,0x10
    1b8e:	81c1                	srli	a1,a1,0x10
    1b90:	eb19                	bnez	a4,1ba6 <u8g2_draw_l90_r2+0x32>
    1b92:	167d                	addi	a2,a2,-1
    1b94:	8d95                	sub	a1,a1,a3
    1b96:	0642                	slli	a2,a2,0x10
    1b98:	05c2                	slli	a1,a1,0x10
    1b9a:	8241                	srli	a2,a2,0x10
    1b9c:	81c1                	srli	a1,a1,0x10
    1b9e:	d57ff0ef          	jal	ra,18f4 <u8g2_draw_hv_line_2dir>
    1ba2:	e72fe06f          	j	214 <__riscv_restore_0>
    1ba6:	4785                	li	a5,1
    1ba8:	fef71be3          	bne	a4,a5,1b9e <u8g2_draw_l90_r2+0x2a>
    1bac:	15fd                	addi	a1,a1,-1
    1bae:	8e15                	sub	a2,a2,a3
    1bb0:	05c2                	slli	a1,a1,0x10
    1bb2:	0642                	slli	a2,a2,0x10
    1bb4:	81c1                	srli	a1,a1,0x10
    1bb6:	8241                	srli	a2,a2,0x10
    1bb8:	b7dd                	j	1b9e <u8g2_draw_l90_r2+0x2a>

00001bba <u8g2_apply_clip_window>:
    1bba:	e36fe2ef          	jal	t0,1f0 <__riscv_save_0>
    1bbe:	05655703          	lhu	a4,86(a0)
    1bc2:	05255683          	lhu	a3,82(a0)
    1bc6:	05455603          	lhu	a2,84(a0)
    1bca:	05055583          	lhu	a1,80(a0)
    1bce:	842a                	mv	s0,a0
    1bd0:	35b5                	jal	1a3c <u8g2_IsIntersection>
    1bd2:	e509                	bnez	a0,1bdc <u8g2_apply_clip_window+0x22>
    1bd4:	08040623          	sb	zero,140(s0)
    1bd8:	e3cfe06f          	j	214 <__riscv_restore_0>
    1bdc:	4785                	li	a5,1
    1bde:	08f40623          	sb	a5,140(s0)
    1be2:	04845703          	lhu	a4,72(s0)
    1be6:	05045783          	lhu	a5,80(s0)
    1bea:	00f77463          	bgeu	a4,a5,1bf2 <u8g2_apply_clip_window+0x38>
    1bee:	04f41423          	sh	a5,72(s0)
    1bf2:	05245783          	lhu	a5,82(s0)
    1bf6:	04a45703          	lhu	a4,74(s0)
    1bfa:	00e7f463          	bgeu	a5,a4,1c02 <u8g2_apply_clip_window+0x48>
    1bfe:	04f41523          	sh	a5,74(s0)
    1c02:	05445783          	lhu	a5,84(s0)
    1c06:	04c45703          	lhu	a4,76(s0)
    1c0a:	00f77463          	bgeu	a4,a5,1c12 <u8g2_apply_clip_window+0x58>
    1c0e:	04f41623          	sh	a5,76(s0)
    1c12:	05645783          	lhu	a5,86(s0)
    1c16:	04e45703          	lhu	a4,78(s0)
    1c1a:	fae7ffe3          	bgeu	a5,a4,1bd8 <u8g2_apply_clip_window+0x1e>
    1c1e:	04f41723          	sh	a5,78(s0)
    1c22:	bf5d                	j	1bd8 <u8g2_apply_clip_window+0x1e>

00001c24 <u8g2_update_page_win_r2>:
    1c24:	dccfe2ef          	jal	t0,1f0 <__riscv_save_0>
    1c28:	04455783          	lhu	a5,68(a0)
    1c2c:	04255703          	lhu	a4,66(a0)
    1c30:	04051423          	sh	zero,72(a0)
    1c34:	04f51523          	sh	a5,74(a0)
    1c38:	04655783          	lhu	a5,70(a0)
    1c3c:	04051623          	sh	zero,76(a0)
    1c40:	00e7e663          	bltu	a5,a4,1c4c <u8g2_update_page_win_r2+0x28>
    1c44:	40e78733          	sub	a4,a5,a4
    1c48:	04e51623          	sh	a4,76(a0)
    1c4c:	04055703          	lhu	a4,64(a0)
    1c50:	8f99                	sub	a5,a5,a4
    1c52:	04f51723          	sh	a5,78(a0)
    1c56:	3795                	jal	1bba <u8g2_apply_clip_window>
    1c58:	dbcfe06f          	j	214 <__riscv_restore_0>

00001c5c <u8g2_update_dimension_r2>:
    1c5c:	d94fe2ef          	jal	t0,1f0 <__riscv_save_0>
    1c60:	3d4d                	jal	1b12 <u8g2_update_dimension_common>
    1c62:	db2fe06f          	j	214 <__riscv_restore_0>

00001c66 <u8g2_SetMaxClipWindow>:
    1c66:	d8afe2ef          	jal	t0,1f0 <__riscv_save_0>
    1c6a:	591c                	lw	a5,48(a0)
    1c6c:	7741                	lui	a4,0xffff0
    1c6e:	c938                	sw	a4,80(a0)
    1c70:	43dc                	lw	a5,4(a5)
    1c72:	c978                	sw	a4,84(a0)
    1c74:	9782                	jalr	a5
    1c76:	d9efe06f          	j	214 <__riscv_restore_0>

00001c7a <u8g2_SetupBuffer>:
    1c7a:	d76fe2ef          	jal	t0,1f0 <__riscv_save_0>
    1c7e:	10100793          	li	a5,257
    1c82:	02c50c23          	sb	a2,56(a0)
    1c86:	02050ca3          	sb	zero,57(a0)
    1c8a:	060506a3          	sb	zero,109(a0)
    1c8e:	080506a3          	sb	zero,141(a0)
    1c92:	080508a3          	sb	zero,145(a0)
    1c96:	08f51923          	sh	a5,146(a0)
    1c9a:	431c                	lw	a5,0(a4)
    1c9c:	d554                	sw	a3,44(a0)
    1c9e:	d94c                	sw	a1,52(a0)
    1ca0:	d918                	sw	a4,48(a0)
    1ca2:	04052c23          	sw	zero,88(a0)
    1ca6:	842a                	mv	s0,a0
    1ca8:	9782                	jalr	a5
    1caa:	8522                	mv	a0,s0
    1cac:	3f6d                	jal	1c66 <u8g2_SetMaxClipWindow>
    1cae:	8522                	mv	a0,s0
    1cb0:	c05ff0ef          	jal	ra,18b4 <u8g2_SetFontPosBaseline>
    1cb4:	06040823          	sb	zero,112(s0)
    1cb8:	d5cfe06f          	j	214 <__riscv_restore_0>

00001cbc <u8x8_utf8_next>:
    1cbc:	cdc9                	beqz	a1,1d56 <u8x8_utf8_next+0x9a>
    1cbe:	47a9                	li	a5,10
    1cc0:	08f58b63          	beq	a1,a5,1d56 <u8x8_utf8_next+0x9a>
    1cc4:	02654703          	lbu	a4,38(a0)
    1cc8:	e735                	bnez	a4,1d34 <u8x8_utf8_next+0x78>
    1cca:	0fb00793          	li	a5,251
    1cce:	00b7fb63          	bgeu	a5,a1,1ce4 <u8x8_utf8_next+0x28>
    1cd2:	4795                	li	a5,5
    1cd4:	02f50323          	sb	a5,38(a0)
    1cd8:	8985                	andi	a1,a1,1
    1cda:	02b51023          	sh	a1,32(a0)
    1cde:	65c1                	lui	a1,0x10
    1ce0:	15f9                	addi	a1,a1,-2
    1ce2:	a0b9                	j	1d30 <u8x8_utf8_next+0x74>
    1ce4:	0f700793          	li	a5,247
    1ce8:	00b7f763          	bgeu	a5,a1,1cf6 <u8x8_utf8_next+0x3a>
    1cec:	4791                	li	a5,4
    1cee:	02f50323          	sb	a5,38(a0)
    1cf2:	898d                	andi	a1,a1,3
    1cf4:	b7dd                	j	1cda <u8x8_utf8_next+0x1e>
    1cf6:	0ef00793          	li	a5,239
    1cfa:	00b7f763          	bgeu	a5,a1,1d08 <u8x8_utf8_next+0x4c>
    1cfe:	478d                	li	a5,3
    1d00:	02f50323          	sb	a5,38(a0)
    1d04:	899d                	andi	a1,a1,7
    1d06:	bfd1                	j	1cda <u8x8_utf8_next+0x1e>
    1d08:	0df00793          	li	a5,223
    1d0c:	00b7f763          	bgeu	a5,a1,1d1a <u8x8_utf8_next+0x5e>
    1d10:	4789                	li	a5,2
    1d12:	02f50323          	sb	a5,38(a0)
    1d16:	89bd                	andi	a1,a1,15
    1d18:	b7c9                	j	1cda <u8x8_utf8_next+0x1e>
    1d1a:	0bf00793          	li	a5,191
    1d1e:	00b7f763          	bgeu	a5,a1,1d2c <u8x8_utf8_next+0x70>
    1d22:	4785                	li	a5,1
    1d24:	02f50323          	sb	a5,38(a0)
    1d28:	89fd                	andi	a1,a1,31
    1d2a:	bf45                	j	1cda <u8x8_utf8_next+0x1e>
    1d2c:	05c2                	slli	a1,a1,0x10
    1d2e:	81c1                	srli	a1,a1,0x10
    1d30:	852e                	mv	a0,a1
    1d32:	8082                	ret
    1d34:	02055783          	lhu	a5,32(a0)
    1d38:	03f5f593          	andi	a1,a1,63
    1d3c:	177d                	addi	a4,a4,-1
    1d3e:	079a                	slli	a5,a5,0x6
    1d40:	8ddd                	or	a1,a1,a5
    1d42:	05c2                	slli	a1,a1,0x10
    1d44:	0ff77713          	andi	a4,a4,255
    1d48:	81c1                	srli	a1,a1,0x10
    1d4a:	02e50323          	sb	a4,38(a0)
    1d4e:	02b51023          	sh	a1,32(a0)
    1d52:	df79                	beqz	a4,1d30 <u8x8_utf8_next+0x74>
    1d54:	b769                	j	1cde <u8x8_utf8_next+0x22>
    1d56:	65c1                	lui	a1,0x10
    1d58:	15fd                	addi	a1,a1,-1
    1d5a:	bfd9                	j	1d30 <u8x8_utf8_next+0x74>

00001d5c <u8x8_utf8_init>:
    1d5c:	02050323          	sb	zero,38(a0)
    1d60:	8082                	ret

00001d62 <u8x8_byte_SetDC>:
    1d62:	c8efe2ef          	jal	t0,1f0 <__riscv_save_0>
    1d66:	491c                	lw	a5,16(a0)
    1d68:	862e                	mv	a2,a1
    1d6a:	4681                	li	a3,0
    1d6c:	02000593          	li	a1,32
    1d70:	9782                	jalr	a5
    1d72:	ca2fe06f          	j	214 <__riscv_restore_0>

00001d76 <u8x8_byte_SendBytes>:
    1d76:	c7afe2ef          	jal	t0,1f0 <__riscv_save_0>
    1d7a:	491c                	lw	a5,16(a0)
    1d7c:	86b2                	mv	a3,a2
    1d7e:	862e                	mv	a2,a1
    1d80:	45dd                	li	a1,23
    1d82:	9782                	jalr	a5
    1d84:	c90fe06f          	j	214 <__riscv_restore_0>

00001d88 <u8x8_byte_SendByte>:
    1d88:	c68fe2ef          	jal	t0,1f0 <__riscv_save_0>
    1d8c:	1141                	addi	sp,sp,-16
    1d8e:	00b107a3          	sb	a1,15(sp)
    1d92:	00f10613          	addi	a2,sp,15
    1d96:	4585                	li	a1,1
    1d98:	3ff9                	jal	1d76 <u8x8_byte_SendBytes>
    1d9a:	0141                	addi	sp,sp,16
    1d9c:	c78fe06f          	j	214 <__riscv_restore_0>

00001da0 <u8x8_cad_SendCmd>:
    1da0:	c50fe2ef          	jal	t0,1f0 <__riscv_save_0>
    1da4:	455c                	lw	a5,12(a0)
    1da6:	862e                	mv	a2,a1
    1da8:	4681                	li	a3,0
    1daa:	45d5                	li	a1,21
    1dac:	9782                	jalr	a5
    1dae:	c66fe06f          	j	214 <__riscv_restore_0>

00001db2 <u8x8_cad_SendArg>:
    1db2:	c3efe2ef          	jal	t0,1f0 <__riscv_save_0>
    1db6:	455c                	lw	a5,12(a0)
    1db8:	862e                	mv	a2,a1
    1dba:	4681                	li	a3,0
    1dbc:	45d9                	li	a1,22
    1dbe:	9782                	jalr	a5
    1dc0:	c54fe06f          	j	214 <__riscv_restore_0>

00001dc4 <u8x8_cad_SendData>:
    1dc4:	c2cfe2ef          	jal	t0,1f0 <__riscv_save_0>
    1dc8:	455c                	lw	a5,12(a0)
    1dca:	86b2                	mv	a3,a2
    1dcc:	862e                	mv	a2,a1
    1dce:	45dd                	li	a1,23
    1dd0:	9782                	jalr	a5
    1dd2:	c42fe06f          	j	214 <__riscv_restore_0>

00001dd6 <u8x8_cad_StartTransfer>:
    1dd6:	c1afe2ef          	jal	t0,1f0 <__riscv_save_0>
    1dda:	455c                	lw	a5,12(a0)
    1ddc:	4681                	li	a3,0
    1dde:	4601                	li	a2,0
    1de0:	45e1                	li	a1,24
    1de2:	9782                	jalr	a5
    1de4:	c30fe06f          	j	214 <__riscv_restore_0>

00001de8 <u8x8_cad_EndTransfer>:
    1de8:	c08fe2ef          	jal	t0,1f0 <__riscv_save_0>
    1dec:	455c                	lw	a5,12(a0)
    1dee:	4681                	li	a3,0
    1df0:	4601                	li	a2,0
    1df2:	45e5                	li	a1,25
    1df4:	9782                	jalr	a5
    1df6:	c1efe06f          	j	214 <__riscv_restore_0>

00001dfa <u8x8_cad_SendSequence>:
    1dfa:	bdcfe2ef          	jal	t0,1d6 <__riscv_save_4>
    1dfe:	1141                	addi	sp,sp,-16
    1e00:	84aa                	mv	s1,a0
    1e02:	842e                	mv	s0,a1
    1e04:	495d                	li	s2,23
    1e06:	49e5                	li	s3,25
    1e08:	0fe00a13          	li	s4,254
    1e0c:	4ad5                	li	s5,21
    1e0e:	00044583          	lbu	a1,0(s0)
    1e12:	05258063          	beq	a1,s2,1e52 <u8x8_cad_SendSequence+0x58>
    1e16:	00b96763          	bltu	s2,a1,1e24 <u8x8_cad_SendSequence+0x2a>
    1e1a:	0355f263          	bgeu	a1,s5,1e3e <u8x8_cad_SendSequence+0x44>
    1e1e:	0141                	addi	sp,sp,16
    1e20:	beafe06f          	j	20a <__riscv_restore_4>
    1e24:	04b9f163          	bgeu	s3,a1,1e66 <u8x8_cad_SendSequence+0x6c>
    1e28:	ff459be3          	bne	a1,s4,1e1e <u8x8_cad_SendSequence+0x24>
    1e2c:	00144603          	lbu	a2,1(s0)
    1e30:	02900593          	li	a1,41
    1e34:	8526                	mv	a0,s1
    1e36:	00c107a3          	sb	a2,15(sp)
    1e3a:	2eb1                	jal	2196 <u8x8_gpio_call>
    1e3c:	a809                	j	1e4e <u8x8_cad_SendSequence+0x54>
    1e3e:	00144603          	lbu	a2,1(s0)
    1e42:	44dc                	lw	a5,12(s1)
    1e44:	4681                	li	a3,0
    1e46:	00c107a3          	sb	a2,15(sp)
    1e4a:	8526                	mv	a0,s1
    1e4c:	9782                	jalr	a5
    1e4e:	0409                	addi	s0,s0,2
    1e50:	bf7d                	j	1e0e <u8x8_cad_SendSequence+0x14>
    1e52:	00144783          	lbu	a5,1(s0)
    1e56:	00f10613          	addi	a2,sp,15
    1e5a:	4585                	li	a1,1
    1e5c:	8526                	mv	a0,s1
    1e5e:	00f107a3          	sb	a5,15(sp)
    1e62:	378d                	jal	1dc4 <u8x8_cad_SendData>
    1e64:	b7ed                	j	1e4e <u8x8_cad_SendSequence+0x54>
    1e66:	44dc                	lw	a5,12(s1)
    1e68:	4681                	li	a3,0
    1e6a:	4601                	li	a2,0
    1e6c:	8526                	mv	a0,s1
    1e6e:	0405                	addi	s0,s0,1
    1e70:	9782                	jalr	a5
    1e72:	bf71                	j	1e0e <u8x8_cad_SendSequence+0x14>

00001e74 <u8x8_cad_001>:
    1e74:	fec58793          	addi	a5,a1,-20 # ffec <_data_lma+0xb2d4>
    1e78:	0ff7f793          	andi	a5,a5,255
    1e7c:	4715                	li	a4,5
    1e7e:	04f76263          	bltu	a4,a5,1ec2 <u8x8_cad_001+0x4e>
    1e82:	b6efe2ef          	jal	t0,1f0 <__riscv_save_0>
    1e86:	6715                	lui	a4,0x5
    1e88:	078a                	slli	a5,a5,0x2
    1e8a:	af870713          	addi	a4,a4,-1288 # 4af8 <u8g2_cb_r2+0xc>
    1e8e:	97ba                	add	a5,a5,a4
    1e90:	439c                	lw	a5,0(a5)
    1e92:	1141                	addi	sp,sp,-16
    1e94:	8932                	mv	s2,a2
    1e96:	84ae                	mv	s1,a1
    1e98:	842a                	mv	s0,a0
    1e9a:	8782                	jr	a5
    1e9c:	4581                	li	a1,0
    1e9e:	35d1                	jal	1d62 <u8x8_byte_SetDC>
    1ea0:	85ca                	mv	a1,s2
    1ea2:	8522                	mv	a0,s0
    1ea4:	35d5                	jal	1d88 <u8x8_byte_SendByte>
    1ea6:	4505                	li	a0,1
    1ea8:	0141                	addi	sp,sp,16
    1eaa:	b6afe06f          	j	214 <__riscv_restore_0>
    1eae:	4585                	li	a1,1
    1eb0:	c636                	sw	a3,12(sp)
    1eb2:	3d45                	jal	1d62 <u8x8_byte_SetDC>
    1eb4:	46b2                	lw	a3,12(sp)
    1eb6:	481c                	lw	a5,16(s0)
    1eb8:	864a                	mv	a2,s2
    1eba:	85a6                	mv	a1,s1
    1ebc:	8522                	mv	a0,s0
    1ebe:	9782                	jalr	a5
    1ec0:	b7e5                	j	1ea8 <u8x8_cad_001+0x34>
    1ec2:	4501                	li	a0,0
    1ec4:	8082                	ret

00001ec6 <u8x8_d_ssd1309_generic>:
    1ec6:	b10fe2ef          	jal	t0,1d6 <__riscv_save_4>
    1eca:	47b9                	li	a5,14
    1ecc:	842a                	mv	s0,a0
    1ece:	8932                	mv	s2,a2
    1ed0:	08f58563          	beq	a1,a5,1f5a <u8x8_d_ssd1309_generic+0x94>
    1ed4:	47bd                	li	a5,15
    1ed6:	00f58863          	beq	a1,a5,1ee6 <u8x8_d_ssd1309_generic+0x20>
    1eda:	47ad                	li	a5,11
    1edc:	06f58563          	beq	a1,a5,1f46 <u8x8_d_ssd1309_generic+0x80>
    1ee0:	4501                	li	a0,0
    1ee2:	b28fe06f          	j	20a <__riscv_restore_4>
    1ee6:	89b6                	mv	s3,a3
    1ee8:	35fd                	jal	1dd6 <u8x8_cad_StartTransfer>
    1eea:	0059c483          	lbu	s1,5(s3)
    1eee:	02244783          	lbu	a5,34(s0)
    1ef2:	8522                	mv	a0,s0
    1ef4:	048e                	slli	s1,s1,0x3
    1ef6:	94be                	add	s1,s1,a5
    1ef8:	0ff4f493          	andi	s1,s1,255
    1efc:	0044d593          	srli	a1,s1,0x4
    1f00:	0105e593          	ori	a1,a1,16
    1f04:	e9dff0ef          	jal	ra,1da0 <u8x8_cad_SendCmd>
    1f08:	00f4f593          	andi	a1,s1,15
    1f0c:	8522                	mv	a0,s0
    1f0e:	e93ff0ef          	jal	ra,1da0 <u8x8_cad_SendCmd>
    1f12:	0069c583          	lbu	a1,6(s3)
    1f16:	8522                	mv	a0,s0
    1f18:	0b05e593          	ori	a1,a1,176
    1f1c:	e85ff0ef          	jal	ra,1da0 <u8x8_cad_SendCmd>
    1f20:	0049c583          	lbu	a1,4(s3)
    1f24:	0009a603          	lw	a2,0(s3)
    1f28:	197d                	addi	s2,s2,-1
    1f2a:	058e                	slli	a1,a1,0x3
    1f2c:	0f85f593          	andi	a1,a1,248
    1f30:	8522                	mv	a0,s0
    1f32:	0ff97913          	andi	s2,s2,255
    1f36:	e8fff0ef          	jal	ra,1dc4 <u8x8_cad_SendData>
    1f3a:	fe0913e3          	bnez	s2,1f20 <u8x8_d_ssd1309_generic+0x5a>
    1f3e:	8522                	mv	a0,s0
    1f40:	ea9ff0ef          	jal	ra,1de8 <u8x8_cad_EndTransfer>
    1f44:	a031                	j	1f50 <u8x8_d_ssd1309_generic+0x8a>
    1f46:	e619                	bnez	a2,1f54 <u8x8_d_ssd1309_generic+0x8e>
    1f48:	81818593          	addi	a1,gp,-2024 # 20000038 <u8x8_d_ssd1309_powersave0_seq>
    1f4c:	eafff0ef          	jal	ra,1dfa <u8x8_cad_SendSequence>
    1f50:	4505                	li	a0,1
    1f52:	bf41                	j	1ee2 <u8x8_d_ssd1309_generic+0x1c>
    1f54:	82018593          	addi	a1,gp,-2016 # 20000040 <u8x8_d_ssd1309_powersave1_seq>
    1f58:	bfd5                	j	1f4c <u8x8_d_ssd1309_generic+0x86>
    1f5a:	e7dff0ef          	jal	ra,1dd6 <u8x8_cad_StartTransfer>
    1f5e:	08100593          	li	a1,129
    1f62:	8522                	mv	a0,s0
    1f64:	e3dff0ef          	jal	ra,1da0 <u8x8_cad_SendCmd>
    1f68:	85ca                	mv	a1,s2
    1f6a:	8522                	mv	a0,s0
    1f6c:	e47ff0ef          	jal	ra,1db2 <u8x8_cad_SendArg>
    1f70:	b7f9                	j	1f3e <u8x8_d_ssd1309_generic+0x78>

00001f72 <u8x8_d_ssd1309_128x64_noname0>:
    1f72:	a7efe2ef          	jal	t0,1f0 <__riscv_save_0>
    1f76:	842a                	mv	s0,a0
    1f78:	84ae                	mv	s1,a1
    1f7a:	8932                	mv	s2,a2
    1f7c:	37a9                	jal	1ec6 <u8x8_d_ssd1309_generic>
    1f7e:	ed05                	bnez	a0,1fb6 <u8x8_d_ssd1309_128x64_noname0+0x44>
    1f80:	47a9                	li	a5,10
    1f82:	04f48663          	beq	s1,a5,1fce <u8x8_d_ssd1309_128x64_noname0+0x5c>
    1f86:	47b5                	li	a5,13
    1f88:	00f48b63          	beq	s1,a5,1f9e <u8x8_d_ssd1309_128x64_noname0+0x2c>
    1f8c:	47a5                	li	a5,9
    1f8e:	02f49563          	bne	s1,a5,1fb8 <u8x8_d_ssd1309_128x64_noname0+0x46>
    1f92:	6595                	lui	a1,0x5
    1f94:	b3c58593          	addi	a1,a1,-1220 # 4b3c <u8x8_ssd1309_128x64_noname0_display_info>
    1f98:	8522                	mv	a0,s0
    1f9a:	2a29                	jal	20b4 <u8x8_d_helper_display_setup_memory>
    1f9c:	a829                	j	1fb6 <u8x8_d_ssd1309_128x64_noname0+0x44>
    1f9e:	00091f63          	bnez	s2,1fbc <u8x8_d_ssd1309_128x64_noname0+0x4a>
    1fa2:	80818593          	addi	a1,gp,-2040 # 20000028 <u8x8_d_ssd1309_128x64_flip0_seq>
    1fa6:	8522                	mv	a0,s0
    1fa8:	e53ff0ef          	jal	ra,1dfa <u8x8_cad_SendSequence>
    1fac:	401c                	lw	a5,0(s0)
    1fae:	0127c783          	lbu	a5,18(a5)
    1fb2:	02f40123          	sb	a5,34(s0)
    1fb6:	4505                	li	a0,1
    1fb8:	a5cfe06f          	j	214 <__riscv_restore_0>
    1fbc:	81018593          	addi	a1,gp,-2032 # 20000030 <u8x8_d_ssd1309_128x64_flip1_seq>
    1fc0:	8522                	mv	a0,s0
    1fc2:	e39ff0ef          	jal	ra,1dfa <u8x8_cad_SendSequence>
    1fc6:	401c                	lw	a5,0(s0)
    1fc8:	0137c783          	lbu	a5,19(a5)
    1fcc:	b7dd                	j	1fb2 <u8x8_d_ssd1309_128x64_noname0+0x40>
    1fce:	8522                	mv	a0,s0
    1fd0:	28c5                	jal	20c0 <u8x8_d_helper_display_init>
    1fd2:	6595                	lui	a1,0x5
    1fd4:	b1058593          	addi	a1,a1,-1264 # 4b10 <u8x8_d_ssd1309_128x64_noname_init_seq>
    1fd8:	8522                	mv	a0,s0
    1fda:	e21ff0ef          	jal	ra,1dfa <u8x8_cad_SendSequence>
    1fde:	bfe1                	j	1fb6 <u8x8_d_ssd1309_128x64_noname0+0x44>

00001fe0 <u8x8_GetMenuEvent>:
    1fe0:	9f6fe2ef          	jal	t0,1d6 <__riscv_save_4>
    1fe4:	842a                	mv	s0,a0
    1fe6:	05000913          	li	s2,80
    1fea:	0ff00493          	li	s1,255
    1fee:	4a05                	li	s4,1
    1ff0:	05600993          	li	s3,86
    1ff4:	85ca                	mv	a1,s2
    1ff6:	034403a3          	sb	s4,39(s0)
    1ffa:	4601                	li	a2,0
    1ffc:	8522                	mv	a0,s0
    1ffe:	2a61                	jal	2196 <u8x8_gpio_call>
    2000:	02744783          	lbu	a5,39(s0)
    2004:	0486                	slli	s1,s1,0x1
    2006:	0905                	addi	s2,s2,1
    2008:	8b85                	andi	a5,a5,1
    200a:	8cdd                	or	s1,s1,a5
    200c:	0ff97913          	andi	s2,s2,255
    2010:	0ff4f493          	andi	s1,s1,255
    2014:	ff3910e3          	bne	s2,s3,1ff4 <u8x8_GetMenuEvent+0x14>
    2018:	02a44783          	lbu	a5,42(s0)
    201c:	4741                	li	a4,16
    201e:	06e78563          	beq	a5,a4,2088 <u8x8_GetMenuEvent+0xa8>
    2022:	00f76563          	bltu	a4,a5,202c <u8x8_GetMenuEvent+0x4c>
    2026:	c7b9                	beqz	a5,2074 <u8x8_GetMenuEvent+0x94>
    2028:	17fd                	addi	a5,a5,-1
    202a:	a89d                	j	20a0 <u8x8_GetMenuEvent+0xc0>
    202c:	02000713          	li	a4,32
    2030:	06e78b63          	beq	a5,a4,20a6 <u8x8_GetMenuEvent+0xc6>
    2034:	03000713          	li	a4,48
    2038:	fee798e3          	bne	a5,a4,2028 <u8x8_GetMenuEvent+0x48>
    203c:	02844783          	lbu	a5,40(s0)
    2040:	4501                	li	a0,0
    2042:	04979163          	bne	a5,s1,2084 <u8x8_GetMenuEvent+0xa4>
    2046:	02944703          	lbu	a4,41(s0)
    204a:	02040523          	sb	zero,42(s0)
    204e:	4519                	li	a0,6
    2050:	4785                	li	a5,1
    2052:	8cb9                	xor	s1,s1,a4
    2054:	157d                	addi	a0,a0,-1
    2056:	0097f733          	and	a4,a5,s1
    205a:	0ff57513          	andi	a0,a0,255
    205e:	e711                	bnez	a4,206a <u8x8_GetMenuEvent+0x8a>
    2060:	0786                	slli	a5,a5,0x1
    2062:	0ff7f793          	andi	a5,a5,255
    2066:	f57d                	bnez	a0,2054 <u8x8_GetMenuEvent+0x74>
    2068:	4519                	li	a0,6
    206a:	05050513          	addi	a0,a0,80
    206e:	0ff57513          	andi	a0,a0,255
    2072:	a809                	j	2084 <u8x8_GetMenuEvent+0xa4>
    2074:	02844783          	lbu	a5,40(s0)
    2078:	4501                	li	a0,0
    207a:	00978563          	beq	a5,s1,2084 <u8x8_GetMenuEvent+0xa4>
    207e:	47c9                	li	a5,18
    2080:	02f40523          	sb	a5,42(s0)
    2084:	986fe06f          	j	20a <__riscv_restore_4>
    2088:	02844783          	lbu	a5,40(s0)
    208c:	00979663          	bne	a5,s1,2098 <u8x8_GetMenuEvent+0xb8>
    2090:	02040523          	sb	zero,42(s0)
    2094:	4501                	li	a0,0
    2096:	b7fd                	j	2084 <u8x8_GetMenuEvent+0xa4>
    2098:	029404a3          	sb	s1,41(s0)
    209c:	02200793          	li	a5,34
    20a0:	02f40523          	sb	a5,42(s0)
    20a4:	bfc5                	j	2094 <u8x8_GetMenuEvent+0xb4>
    20a6:	02944783          	lbu	a5,41(s0)
    20aa:	fe9793e3          	bne	a5,s1,2090 <u8x8_GetMenuEvent+0xb0>
    20ae:	03000793          	li	a5,48
    20b2:	b7fd                	j	20a0 <u8x8_GetMenuEvent+0xc0>

000020b4 <u8x8_d_helper_display_setup_memory>:
    20b4:	c10c                	sw	a1,0(a0)
    20b6:	0125c783          	lbu	a5,18(a1)
    20ba:	02f50123          	sb	a5,34(a0)
    20be:	8082                	ret

000020c0 <u8x8_d_helper_display_init>:
    20c0:	930fe2ef          	jal	t0,1f0 <__riscv_save_0>
    20c4:	495c                	lw	a5,20(a0)
    20c6:	4681                	li	a3,0
    20c8:	4601                	li	a2,0
    20ca:	02800593          	li	a1,40
    20ce:	842a                	mv	s0,a0
    20d0:	9782                	jalr	a5
    20d2:	445c                	lw	a5,12(s0)
    20d4:	4681                	li	a3,0
    20d6:	4601                	li	a2,0
    20d8:	45d1                	li	a1,20
    20da:	8522                	mv	a0,s0
    20dc:	9782                	jalr	a5
    20de:	8522                	mv	a0,s0
    20e0:	4605                	li	a2,1
    20e2:	04b00593          	li	a1,75
    20e6:	2845                	jal	2196 <u8x8_gpio_call>
    20e8:	401c                	lw	a5,0(s0)
    20ea:	8522                	mv	a0,s0
    20ec:	02900593          	li	a1,41
    20f0:	0047c603          	lbu	a2,4(a5)
    20f4:	204d                	jal	2196 <u8x8_gpio_call>
    20f6:	8522                	mv	a0,s0
    20f8:	4601                	li	a2,0
    20fa:	04b00593          	li	a1,75
    20fe:	2861                	jal	2196 <u8x8_gpio_call>
    2100:	401c                	lw	a5,0(s0)
    2102:	8522                	mv	a0,s0
    2104:	02900593          	li	a1,41
    2108:	0047c603          	lbu	a2,4(a5)
    210c:	2069                	jal	2196 <u8x8_gpio_call>
    210e:	8522                	mv	a0,s0
    2110:	4605                	li	a2,1
    2112:	04b00593          	li	a1,75
    2116:	2041                	jal	2196 <u8x8_gpio_call>
    2118:	401c                	lw	a5,0(s0)
    211a:	02900593          	li	a1,41
    211e:	8522                	mv	a0,s0
    2120:	0057c603          	lbu	a2,5(a5)
    2124:	288d                	jal	2196 <u8x8_gpio_call>
    2126:	8eefe06f          	j	214 <__riscv_restore_0>

0000212a <u8x8_DrawTile>:
    212a:	8c6fe2ef          	jal	t0,1f0 <__riscv_save_0>
    212e:	451c                	lw	a5,8(a0)
    2130:	1141                	addi	sp,sp,-16
    2132:	00b106a3          	sb	a1,13(sp)
    2136:	00c10723          	sb	a2,14(sp)
    213a:	00d10623          	sb	a3,12(sp)
    213e:	c43a                	sw	a4,8(sp)
    2140:	0034                	addi	a3,sp,8
    2142:	4605                	li	a2,1
    2144:	45bd                	li	a1,15
    2146:	9782                	jalr	a5
    2148:	0141                	addi	sp,sp,16
    214a:	8cafe06f          	j	214 <__riscv_restore_0>

0000214e <u8x8_SetupMemory>:
    214e:	8a2fe2ef          	jal	t0,1f0 <__riscv_save_0>
    2152:	451c                	lw	a5,8(a0)
    2154:	4681                	li	a3,0
    2156:	4601                	li	a2,0
    2158:	45a5                	li	a1,9
    215a:	9782                	jalr	a5
    215c:	8b8fe06f          	j	214 <__riscv_restore_0>

00002160 <u8x8_InitDisplay>:
    2160:	890fe2ef          	jal	t0,1f0 <__riscv_save_0>
    2164:	451c                	lw	a5,8(a0)
    2166:	4681                	li	a3,0
    2168:	4601                	li	a2,0
    216a:	45a9                	li	a1,10
    216c:	9782                	jalr	a5
    216e:	8a6fe06f          	j	214 <__riscv_restore_0>

00002172 <u8x8_SetPowerSave>:
    2172:	87efe2ef          	jal	t0,1f0 <__riscv_save_0>
    2176:	451c                	lw	a5,8(a0)
    2178:	862e                	mv	a2,a1
    217a:	4681                	li	a3,0
    217c:	45ad                	li	a1,11
    217e:	9782                	jalr	a5
    2180:	894fe06f          	j	214 <__riscv_restore_0>

00002184 <u8x8_RefreshDisplay>:
    2184:	86cfe2ef          	jal	t0,1f0 <__riscv_save_0>
    2188:	451c                	lw	a5,8(a0)
    218a:	4681                	li	a3,0
    218c:	4601                	li	a2,0
    218e:	45c1                	li	a1,16
    2190:	9782                	jalr	a5
    2192:	882fe06f          	j	214 <__riscv_restore_0>

00002196 <u8x8_gpio_call>:
    2196:	85afe2ef          	jal	t0,1f0 <__riscv_save_0>
    219a:	495c                	lw	a5,20(a0)
    219c:	4681                	li	a3,0
    219e:	9782                	jalr	a5
    21a0:	874fe06f          	j	214 <__riscv_restore_0>

000021a4 <u8x8_dummy_cb>:
    21a4:	4501                	li	a0,0
    21a6:	8082                	ret

000021a8 <u8x8_SetupDefaults>:
    21a8:	000027b7          	lui	a5,0x2
    21ac:	1a478793          	addi	a5,a5,420 # 21a4 <u8x8_dummy_cb>
    21b0:	c51c                	sw	a5,8(a0)
    21b2:	c55c                	sw	a5,12(a0)
    21b4:	c91c                	sw	a5,16(a0)
    21b6:	c95c                	sw	a5,20(a0)
    21b8:	57fd                	li	a5,-1
    21ba:	00052023          	sw	zero,0(a0)
    21be:	020501a3          	sb	zero,35(a0)
    21c2:	02050323          	sb	zero,38(a0)
    21c6:	00052c23          	sw	zero,24(a0)
    21ca:	02f50223          	sb	a5,36(a0)
    21ce:	02f50423          	sb	a5,40(a0)
    21d2:	8082                	ret

000021d4 <u8x8_Setup>:
    21d4:	81cfe2ef          	jal	t0,1f0 <__riscv_save_0>
    21d8:	1141                	addi	sp,sp,-16
    21da:	842a                	mv	s0,a0
    21dc:	c62e                	sw	a1,12(sp)
    21de:	c432                	sw	a2,8(sp)
    21e0:	c236                	sw	a3,4(sp)
    21e2:	c03a                	sw	a4,0(sp)
    21e4:	37d1                	jal	21a8 <u8x8_SetupDefaults>
    21e6:	45b2                	lw	a1,12(sp)
    21e8:	4622                	lw	a2,8(sp)
    21ea:	4692                	lw	a3,4(sp)
    21ec:	4702                	lw	a4,0(sp)
    21ee:	c40c                	sw	a1,8(s0)
    21f0:	c450                	sw	a2,12(s0)
    21f2:	c814                	sw	a3,16(s0)
    21f4:	c858                	sw	a4,20(s0)
    21f6:	8522                	mv	a0,s0
    21f8:	f57ff0ef          	jal	ra,214e <u8x8_SetupMemory>
    21fc:	0141                	addi	sp,sp,16
    21fe:	816fe06f          	j	214 <__riscv_restore_0>

00002202 <u8x8_gpio_and_delay_HW_spi>:
    2202:	04b00793          	li	a5,75
    2206:	0af58863          	beq	a1,a5,22b6 <u8x8_gpio_and_delay_HW_spi+0xb4>
    220a:	fe7fd2ef          	jal	t0,1f0 <__riscv_save_0>
    220e:	842a                	mv	s0,a0
    2210:	04b7e263          	bltu	a5,a1,2254 <u8x8_gpio_and_delay_HW_spi+0x52>
    2214:	02a00793          	li	a5,42
    2218:	06f58b63          	beq	a1,a5,228e <u8x8_gpio_and_delay_HW_spi+0x8c>
    221c:	00b7ea63          	bltu	a5,a1,2230 <u8x8_gpio_and_delay_HW_spi+0x2e>
    2220:	02900793          	li	a5,41
    2224:	06f58c63          	beq	a1,a5,229c <u8x8_gpio_and_delay_HW_spi+0x9a>
    2228:	4785                	li	a5,1
    222a:	02f403a3          	sb	a5,39(s0)
    222e:	a0a5                	j	2296 <u8x8_gpio_and_delay_HW_spi+0x94>
    2230:	04900793          	li	a5,73
    2234:	06f58763          	beq	a1,a5,22a2 <u8x8_gpio_and_delay_HW_spi+0xa0>
    2238:	04a00793          	li	a5,74
    223c:	fef596e3          	bne	a1,a5,2228 <u8x8_gpio_and_delay_HW_spi+0x26>
    2240:	400117b7          	lui	a5,0x40011
    2244:	c0078793          	addi	a5,a5,-1024 # 40010c00 <_eusrstack+0x20008c00>
    2248:	02000737          	lui	a4,0x2000
    224c:	c23d                	beqz	a2,22b2 <u8x8_gpio_and_delay_HW_spi+0xb0>
    224e:	20000713          	li	a4,512
    2252:	a085                	j	22b2 <u8x8_gpio_and_delay_HW_spi+0xb0>
    2254:	05100793          	li	a5,81
    2258:	06f58a63          	beq	a1,a5,22cc <u8x8_gpio_and_delay_HW_spi+0xca>
    225c:	00b7ef63          	bltu	a5,a1,227a <u8x8_gpio_and_delay_HW_spi+0x78>
    2260:	05000793          	li	a5,80
    2264:	fcf592e3          	bne	a1,a5,2228 <u8x8_gpio_and_delay_HW_spi+0x26>
    2268:	458d                	li	a1,3
    226a:	40011537          	lui	a0,0x40011
    226e:	80050513          	addi	a0,a0,-2048 # 40010800 <_eusrstack+0x20008800>
    2272:	2bd5                	jal	2866 <GPIO_ReadInputDataBit>
    2274:	02a403a3          	sb	a0,39(s0)
    2278:	a839                	j	2296 <u8x8_gpio_and_delay_HW_spi+0x94>
    227a:	05200793          	li	a5,82
    227e:	04f58963          	beq	a1,a5,22d0 <u8x8_gpio_and_delay_HW_spi+0xce>
    2282:	05300793          	li	a5,83
    2286:	faf591e3          	bne	a1,a5,2228 <u8x8_gpio_and_delay_HW_spi+0x26>
    228a:	4581                	li	a1,0
    228c:	bff9                	j	226a <u8x8_gpio_and_delay_HW_spi+0x68>
    228e:	4529                	li	a0,10
    2290:	02a60533          	mul	a0,a2,a0
    2294:	252d                	jal	28be <Delay_Us>
    2296:	4505                	li	a0,1
    2298:	f7dfd06f          	j	214 <__riscv_restore_0>
    229c:	8532                	mv	a0,a2
    229e:	2d99                	jal	28f4 <Delay_Ms>
    22a0:	bfdd                	j	2296 <u8x8_gpio_and_delay_HW_spi+0x94>
    22a2:	400117b7          	lui	a5,0x40011
    22a6:	80078793          	addi	a5,a5,-2048 # 40010800 <_eusrstack+0x20008800>
    22aa:	80000737          	lui	a4,0x80000
    22ae:	c211                	beqz	a2,22b2 <u8x8_gpio_and_delay_HW_spi+0xb0>
    22b0:	6721                	lui	a4,0x8
    22b2:	cb98                	sw	a4,16(a5)
    22b4:	b7cd                	j	2296 <u8x8_gpio_and_delay_HW_spi+0x94>
    22b6:	400117b7          	lui	a5,0x40011
    22ba:	c0078793          	addi	a5,a5,-1024 # 40010c00 <_eusrstack+0x20008c00>
    22be:	10000737          	lui	a4,0x10000
    22c2:	c211                	beqz	a2,22c6 <u8x8_gpio_and_delay_HW_spi+0xc4>
    22c4:	6705                	lui	a4,0x1
    22c6:	cb98                	sw	a4,16(a5)
    22c8:	4505                	li	a0,1
    22ca:	8082                	ret
    22cc:	4589                	li	a1,2
    22ce:	bf71                	j	226a <u8x8_gpio_and_delay_HW_spi+0x68>
    22d0:	4585                	li	a1,1
    22d2:	bf61                	j	226a <u8x8_gpio_and_delay_HW_spi+0x68>

000022d4 <u8x8_byte_HW_spi>:
    22d4:	15b1                	addi	a1,a1,-20
    22d6:	0ff5f593          	andi	a1,a1,255
    22da:	47b1                	li	a5,12
    22dc:	18b7e263          	bltu	a5,a1,2460 <u8x8_byte_HW_spi+0x18c>
    22e0:	ef7fd2ef          	jal	t0,1d6 <__riscv_save_4>
    22e4:	6795                	lui	a5,0x5
    22e6:	b5478793          	addi	a5,a5,-1196 # 4b54 <u8x8_ssd1309_128x64_noname0_display_info+0x18>
    22ea:	058a                	slli	a1,a1,0x2
    22ec:	95be                	add	a1,a1,a5
    22ee:	419c                	lw	a5,0(a1)
    22f0:	1141                	addi	sp,sp,-16
    22f2:	8782                	jr	a5
    22f4:	40013737          	lui	a4,0x40013
    22f8:	00875783          	lhu	a5,8(a4) # 40013008 <_eusrstack+0x2000b008>
    22fc:	0807f793          	andi	a5,a5,128
    2300:	ffe5                	bnez	a5,22f8 <u8x8_byte_HW_spi+0x24>
    2302:	411c                	lw	a5,0(a0)
    2304:	0017c603          	lbu	a2,1(a5)
    2308:	a819                	j	231e <u8x8_byte_HW_spi+0x4a>
    230a:	40013737          	lui	a4,0x40013
    230e:	00875783          	lhu	a5,8(a4) # 40013008 <_eusrstack+0x2000b008>
    2312:	0807f793          	andi	a5,a5,128
    2316:	ffe5                	bnez	a5,230e <u8x8_byte_HW_spi+0x3a>
    2318:	411c                	lw	a5,0(a0)
    231a:	0007c603          	lbu	a2,0(a5)
    231e:	04900593          	li	a1,73
    2322:	aa29                	j	243c <u8x8_byte_HW_spi+0x168>
    2324:	40013737          	lui	a4,0x40013
    2328:	e609                	bnez	a2,2332 <u8x8_byte_HW_spi+0x5e>
    232a:	4505                	li	a0,1
    232c:	0141                	addi	sp,sp,16
    232e:	eddfd06f          	j	20a <__riscv_restore_4>
    2332:	00875783          	lhu	a5,8(a4) # 40013008 <_eusrstack+0x2000b008>
    2336:	8b89                	andi	a5,a5,2
    2338:	dfed                	beqz	a5,2332 <u8x8_byte_HW_spi+0x5e>
    233a:	0006c783          	lbu	a5,0(a3)
    233e:	167d                	addi	a2,a2,-1
    2340:	0685                	addi	a3,a3,1
    2342:	00f71623          	sh	a5,12(a4)
    2346:	0ff67613          	andi	a2,a2,255
    234a:	bff9                	j	2328 <u8x8_byte_HW_spi+0x54>
    234c:	4585                	li	a1,1
    234e:	4511                	li	a0,4
    2350:	231d                	jal	2876 <RCC_APB2PeriphClockCmd>
    2352:	4585                	li	a1,1
    2354:	4521                	li	a0,8
    2356:	2305                	jal	2876 <RCC_APB2PeriphClockCmd>
    2358:	40011437          	lui	s0,0x40011
    235c:	448d                	li	s1,3
    235e:	4941                	li	s2,16
    2360:	20000793          	li	a5,512
    2364:	004c                	addi	a1,sp,4
    2366:	c0040513          	addi	a0,s0,-1024 # 40010c00 <_eusrstack+0x20008c00>
    236a:	00f11223          	sh	a5,4(sp)
    236e:	c64a                	sw	s2,12(sp)
    2370:	c426                	sw	s1,8(sp)
    2372:	290d                	jal	27a4 <GPIO_Init>
    2374:	47b1                	li	a5,12
    2376:	004c                	addi	a1,sp,4
    2378:	c0040513          	addi	a0,s0,-1024
    237c:	00f11223          	sh	a5,4(sp)
    2380:	c64a                	sw	s2,12(sp)
    2382:	c426                	sw	s1,8(sp)
    2384:	2105                	jal	27a4 <GPIO_Init>
    2386:	49bd                	li	s3,15
    2388:	004c                	addi	a1,sp,4
    238a:	80040513          	addi	a0,s0,-2048
    238e:	c64a                	sw	s2,12(sp)
    2390:	01311223          	sh	s3,4(sp)
    2394:	c426                	sw	s1,8(sp)
    2396:	2139                	jal	27a4 <GPIO_Init>
    2398:	6505                	lui	a0,0x1
    239a:	4585                	li	a1,1
    239c:	0521                	addi	a0,a0,8
    239e:	29e1                	jal	2876 <RCC_APB2PeriphClockCmd>
    23a0:	47a1                	li	a5,8
    23a2:	4961                	li	s2,24
    23a4:	004c                	addi	a1,sp,4
    23a6:	c0040513          	addi	a0,s0,-1024
    23aa:	00f11223          	sh	a5,4(sp)
    23ae:	c64a                	sw	s2,12(sp)
    23b0:	c426                	sw	s1,8(sp)
    23b2:	2ecd                	jal	27a4 <GPIO_Init>
    23b4:	02000793          	li	a5,32
    23b8:	004c                	addi	a1,sp,4
    23ba:	80040513          	addi	a0,s0,-2048
    23be:	00f11223          	sh	a5,4(sp)
    23c2:	c64a                	sw	s2,12(sp)
    23c4:	c426                	sw	s1,8(sp)
    23c6:	2ef9                	jal	27a4 <GPIO_Init>
    23c8:	400137b7          	lui	a5,0x40013
    23cc:	31c00713          	li	a4,796
    23d0:	00e79023          	sh	a4,0(a5) # 40013000 <_eusrstack+0x2000b000>
    23d4:	01c7d683          	lhu	a3,28(a5)
    23d8:	777d                	lui	a4,0xfffff
    23da:	7ff70713          	addi	a4,a4,2047 # fffff7ff <_eusrstack+0xdfff77ff>
    23de:	8f75                	and	a4,a4,a3
    23e0:	00e79e23          	sh	a4,28(a5)
    23e4:	471d                	li	a4,7
    23e6:	00e79823          	sh	a4,16(a5)
    23ea:	04000713          	li	a4,64
    23ee:	00e79023          	sh	a4,0(a5)
    23f2:	67a1                	lui	a5,0x8
    23f4:	80f42823          	sw	a5,-2032(s0)
    23f8:	4585                	li	a1,1
    23fa:	4511                	li	a0,4
    23fc:	29ad                	jal	2876 <RCC_APB2PeriphClockCmd>
    23fe:	80040413          	addi	s0,s0,-2048
    2402:	4791                	li	a5,4
    2404:	004c                	addi	a1,sp,4
    2406:	8522                	mv	a0,s0
    2408:	01311223          	sh	s3,4(sp)
    240c:	c63e                	sw	a5,12(sp)
    240e:	2e59                	jal	27a4 <GPIO_Init>
    2410:	bf29                	j	232a <u8x8_byte_HW_spi+0x56>
    2412:	200007b7          	lui	a5,0x20000
    2416:	0207a703          	lw	a4,32(a5) # 20000020 <transmitDC>
    241a:	02078793          	addi	a5,a5,32
    241e:	c215                	beqz	a2,2442 <u8x8_byte_HW_spi+0x16e>
    2420:	4685                	li	a3,1
    2422:	f0d714e3          	bne	a4,a3,232a <u8x8_byte_HW_spi+0x56>
    2426:	400136b7          	lui	a3,0x40013
    242a:	0086d703          	lhu	a4,8(a3) # 40013008 <_eusrstack+0x2000b008>
    242e:	08077713          	andi	a4,a4,128
    2432:	ff65                	bnez	a4,242a <u8x8_byte_HW_spi+0x156>
    2434:	0007a023          	sw	zero,0(a5)
    2438:	04a00593          	li	a1,74
    243c:	d5bff0ef          	jal	ra,2196 <u8x8_gpio_call>
    2440:	b5ed                	j	232a <u8x8_byte_HW_spi+0x56>
    2442:	ee0714e3          	bnez	a4,232a <u8x8_byte_HW_spi+0x56>
    2446:	400136b7          	lui	a3,0x40013
    244a:	0086d703          	lhu	a4,8(a3) # 40013008 <_eusrstack+0x2000b008>
    244e:	08077713          	andi	a4,a4,128
    2452:	ff65                	bnez	a4,244a <u8x8_byte_HW_spi+0x176>
    2454:	4705                	li	a4,1
    2456:	c398                	sw	a4,0(a5)
    2458:	4601                	li	a2,0
    245a:	bff9                	j	2438 <u8x8_byte_HW_spi+0x164>
    245c:	4501                	li	a0,0
    245e:	b5f9                	j	232c <u8x8_byte_HW_spi+0x58>
    2460:	4501                	li	a0,0
    2462:	8082                	ret

00002464 <NMI_Handler>:
    2464:	30200073          	mret

00002468 <HardFault_Handler>:
    2468:	a001                	j	2468 <HardFault_Handler>

0000246a <menu_get_cnt>:
    246a:	4511                	li	a0,4
    246c:	8082                	ret

0000246e <menu_get_str>:
    246e:	058a                	slli	a1,a1,0x2
    2470:	95aa                	add	a1,a1,a0
    2472:	4188                	lw	a0,0(a1)
    2474:	8082                	ret

00002476 <mui_hrule>:
    2476:	d7bfd2ef          	jal	t0,1f0 <__riscv_save_0>
    247a:	1141                	addi	sp,sp,-16
    247c:	c62e                	sw	a1,12(sp)
    247e:	84aa                	mv	s1,a0
    2480:	f14fe0ef          	jal	ra,b94 <mui_get_U8g2>
    2484:	45b2                	lw	a1,12(sp)
    2486:	4785                	li	a5,1
    2488:	00f59d63          	bne	a1,a5,24a2 <mui_hrule+0x2c>
    248c:	842a                	mv	s0,a0
    248e:	8526                	mv	a0,s1
    2490:	efefe0ef          	jal	ra,b8e <mui_get_y>
    2494:	04445683          	lhu	a3,68(s0)
    2498:	862a                	mv	a2,a0
    249a:	4581                	li	a1,0
    249c:	8522                	mv	a0,s0
    249e:	d58ff0ef          	jal	ra,19f6 <u8g2_DrawHLine>
    24a2:	4501                	li	a0,0
    24a4:	0141                	addi	sp,sp,16
    24a6:	d6ffd06f          	j	214 <__riscv_restore_0>

000024aa <main>:
    24aa:	d2dfd2ef          	jal	t0,1d6 <__riscv_save_4>
    24ae:	4509                	li	a0,2
    24b0:	26c1                	jal	2870 <NVIC_PriorityGroupConfig>
    24b2:	2ad9                	jal	2688 <SystemCoreClockUpdate>
    24b4:	26c5                	jal	2894 <Delay_Init>
    24b6:	000026b7          	lui	a3,0x2
    24ba:	00002637          	lui	a2,0x2
    24be:	6595                	lui	a1,0x5
    24c0:	20268693          	addi	a3,a3,514 # 2202 <u8x8_gpio_and_delay_HW_spi>
    24c4:	2d460613          	addi	a2,a2,724 # 22d4 <u8x8_byte_HW_spi>
    24c8:	aec58593          	addi	a1,a1,-1300 # 4aec <u8g2_cb_r2>
    24cc:	cb818513          	addi	a0,gp,-840 # 200004d8 <u8g2>
    24d0:	d39fe0ef          	jal	ra,1208 <u8g2_Setup_ssd1309_128x64_noname0_f>
    24d4:	cb818513          	addi	a0,gp,-840 # 200004d8 <u8g2>
    24d8:	c89ff0ef          	jal	ra,2160 <u8x8_InitDisplay>
    24dc:	cb818513          	addi	a0,gp,-840 # 200004d8 <u8g2>
    24e0:	d05fe0ef          	jal	ra,11e4 <u8g2_ClearDisplay>
    24e4:	4581                	li	a1,0
    24e6:	cb818513          	addi	a0,gp,-840 # 200004d8 <u8g2>
    24ea:	c89ff0ef          	jal	ra,2172 <u8x8_SetPowerSave>
    24ee:	4585                	li	a1,1
    24f0:	cb818513          	addi	a0,gp,-840 # 200004d8 <u8g2>
    24f4:	a66ff0ef          	jal	ra,175a <u8g2_SetFontMode>
    24f8:	6695                	lui	a3,0x5
    24fa:	6615                	lui	a2,0x5
    24fc:	4725                	li	a4,9
    24fe:	c8868693          	addi	a3,a3,-888 # 4c88 <muif_list>
    2502:	b9860613          	addi	a2,a2,-1128 # 4b98 <fds_data>
    2506:	cb818593          	addi	a1,gp,-840 # 200004d8 <u8g2>
    250a:	c3018513          	addi	a0,gp,-976 # 20000450 <mui>
    250e:	a00fe0ef          	jal	ra,70e <mui_Init>
    2512:	4601                	li	a2,0
    2514:	4581                	li	a1,0
    2516:	c3018513          	addi	a0,gp,-976 # 20000450 <mui>
    251a:	c0efe0ef          	jal	ra,928 <mui_GotoForm>
    251e:	05200a13          	li	s4,82
    2522:	05300a93          	li	s5,83
    2526:	05000b13          	li	s6,80
    252a:	4785                	li	a5,1
    252c:	c3018913          	addi	s2,gp,-976 # 20000450 <mui>
    2530:	05100993          	li	s3,81
    2534:	01092703          	lw	a4,16(s2)
    2538:	e311                	bnez	a4,253c <main+0x92>
    253a:	a001                	j	253a <main+0x90>
    253c:	cf89                	beqz	a5,2556 <main+0xac>
    253e:	cb818513          	addi	a0,gp,-840 # 200004d8 <u8g2>
    2542:	9cdfe0ef          	jal	ra,f0e <u8g2_FirstPage>
    2546:	854a                	mv	a0,s2
    2548:	9f8fe0ef          	jal	ra,740 <mui_Draw>
    254c:	cb818513          	addi	a0,gp,-840 # 200004d8 <u8g2>
    2550:	9d7fe0ef          	jal	ra,f26 <u8g2_NextPage>
    2554:	f96d                	bnez	a0,2546 <main+0x9c>
    2556:	cb818513          	addi	a0,gp,-840 # 200004d8 <u8g2>
    255a:	a87ff0ef          	jal	ra,1fe0 <u8x8_GetMenuEvent>
    255e:	03350663          	beq	a0,s3,258a <main+0xe0>
    2562:	00a9ea63          	bltu	s3,a0,2576 <main+0xcc>
    2566:	4781                	li	a5,0
    2568:	fd6516e3          	bne	a0,s6,2534 <main+0x8a>
    256c:	c3018513          	addi	a0,gp,-976 # 20000450 <mui>
    2570:	c8efe0ef          	jal	ra,9fe <mui_SendSelect>
    2574:	bf5d                	j	252a <main+0x80>
    2576:	01450f63          	beq	a0,s4,2594 <main+0xea>
    257a:	4781                	li	a5,0
    257c:	fb551ce3          	bne	a0,s5,2534 <main+0x8a>
    2580:	c3018513          	addi	a0,gp,-976 # 20000450 <mui>
    2584:	be8fe0ef          	jal	ra,96c <mui_RestoreForm>
    2588:	b74d                	j	252a <main+0x80>
    258a:	c3018513          	addi	a0,gp,-976 # 20000450 <mui>
    258e:	af0fe0ef          	jal	ra,87e <mui_NextField>
    2592:	bf61                	j	252a <main+0x80>
    2594:	c3018513          	addi	a0,gp,-976 # 20000450 <mui>
    2598:	c20fe0ef          	jal	ra,9b8 <mui_PrevField>
    259c:	b779                	j	252a <main+0x80>

0000259e <SystemInit>:
    259e:	400217b7          	lui	a5,0x40021
    25a2:	4398                	lw	a4,0(a5)
    25a4:	f0ff06b7          	lui	a3,0xf0ff0
    25a8:	1141                	addi	sp,sp,-16
    25aa:	00176713          	ori	a4,a4,1
    25ae:	c398                	sw	a4,0(a5)
    25b0:	43d8                	lw	a4,4(a5)
    25b2:	00020637          	lui	a2,0x20
    25b6:	8f75                	and	a4,a4,a3
    25b8:	c3d8                	sw	a4,4(a5)
    25ba:	4398                	lw	a4,0(a5)
    25bc:	fef706b7          	lui	a3,0xfef70
    25c0:	16fd                	addi	a3,a3,-1
    25c2:	8f75                	and	a4,a4,a3
    25c4:	c398                	sw	a4,0(a5)
    25c6:	4398                	lw	a4,0(a5)
    25c8:	fffc06b7          	lui	a3,0xfffc0
    25cc:	16fd                	addi	a3,a3,-1
    25ce:	8f75                	and	a4,a4,a3
    25d0:	c398                	sw	a4,0(a5)
    25d2:	43d8                	lw	a4,4(a5)
    25d4:	ff8106b7          	lui	a3,0xff810
    25d8:	16fd                	addi	a3,a3,-1
    25da:	8f75                	and	a4,a4,a3
    25dc:	c3d8                	sw	a4,4(a5)
    25de:	009f0737          	lui	a4,0x9f0
    25e2:	c798                	sw	a4,8(a5)
    25e4:	c402                	sw	zero,8(sp)
    25e6:	c602                	sw	zero,12(sp)
    25e8:	4398                	lw	a4,0(a5)
    25ea:	66c1                	lui	a3,0x10
    25ec:	8f55                	or	a4,a4,a3
    25ee:	c398                	sw	a4,0(a5)
    25f0:	400216b7          	lui	a3,0x40021
    25f4:	6705                	lui	a4,0x1
    25f6:	429c                	lw	a5,0(a3)
    25f8:	8ff1                	and	a5,a5,a2
    25fa:	c63e                	sw	a5,12(sp)
    25fc:	47a2                	lw	a5,8(sp)
    25fe:	0785                	addi	a5,a5,1
    2600:	c43e                	sw	a5,8(sp)
    2602:	47b2                	lw	a5,12(sp)
    2604:	e781                	bnez	a5,260c <SystemInit+0x6e>
    2606:	47a2                	lw	a5,8(sp)
    2608:	fee797e3          	bne	a5,a4,25f6 <SystemInit+0x58>
    260c:	400217b7          	lui	a5,0x40021
    2610:	439c                	lw	a5,0(a5)
    2612:	00e79713          	slli	a4,a5,0xe
    2616:	06075763          	bgez	a4,2684 <SystemInit+0xe6>
    261a:	4785                	li	a5,1
    261c:	c63e                	sw	a5,12(sp)
    261e:	4732                	lw	a4,12(sp)
    2620:	4785                	li	a5,1
    2622:	04f71f63          	bne	a4,a5,2680 <SystemInit+0xe2>
    2626:	400217b7          	lui	a5,0x40021
    262a:	43d8                	lw	a4,4(a5)
    262c:	ffc106b7          	lui	a3,0xffc10
    2630:	16fd                	addi	a3,a3,-1
    2632:	c3d8                	sw	a4,4(a5)
    2634:	43d8                	lw	a4,4(a5)
    2636:	c3d8                	sw	a4,4(a5)
    2638:	43d8                	lw	a4,4(a5)
    263a:	40076713          	ori	a4,a4,1024
    263e:	c3d8                	sw	a4,4(a5)
    2640:	43d8                	lw	a4,4(a5)
    2642:	8f75                	and	a4,a4,a3
    2644:	c3d8                	sw	a4,4(a5)
    2646:	43d8                	lw	a4,4(a5)
    2648:	002906b7          	lui	a3,0x290
    264c:	8f55                	or	a4,a4,a3
    264e:	c3d8                	sw	a4,4(a5)
    2650:	4398                	lw	a4,0(a5)
    2652:	010006b7          	lui	a3,0x1000
    2656:	8f55                	or	a4,a4,a3
    2658:	c398                	sw	a4,0(a5)
    265a:	4398                	lw	a4,0(a5)
    265c:	00671693          	slli	a3,a4,0x6
    2660:	fe06dde3          	bgez	a3,265a <SystemInit+0xbc>
    2664:	43d8                	lw	a4,4(a5)
    2666:	400216b7          	lui	a3,0x40021
    266a:	9b71                	andi	a4,a4,-4
    266c:	c3d8                	sw	a4,4(a5)
    266e:	43d8                	lw	a4,4(a5)
    2670:	00276713          	ori	a4,a4,2
    2674:	c3d8                	sw	a4,4(a5)
    2676:	4721                	li	a4,8
    2678:	42dc                	lw	a5,4(a3)
    267a:	8bb1                	andi	a5,a5,12
    267c:	fee79ee3          	bne	a5,a4,2678 <SystemInit+0xda>
    2680:	0141                	addi	sp,sp,16
    2682:	8082                	ret
    2684:	c602                	sw	zero,12(sp)
    2686:	bf61                	j	261e <SystemInit+0x80>

00002688 <SystemCoreClockUpdate>:
    2688:	400216b7          	lui	a3,0x40021
    268c:	42dc                	lw	a5,4(a3)
    268e:	4611                	li	a2,4
    2690:	8bb1                	andi	a5,a5,12
    2692:	80418713          	addi	a4,gp,-2044 # 20000024 <SystemCoreClock>
    2696:	00c78563          	beq	a5,a2,26a0 <SystemCoreClockUpdate+0x18>
    269a:	4621                	li	a2,8
    269c:	02c78963          	beq	a5,a2,26ce <SystemCoreClockUpdate+0x46>
    26a0:	007a17b7          	lui	a5,0x7a1
    26a4:	20078793          	addi	a5,a5,512 # 7a1200 <_data_lma+0x79c4e8>
    26a8:	c31c                	sw	a5,0(a4)
    26aa:	400217b7          	lui	a5,0x40021
    26ae:	43dc                	lw	a5,4(a5)
    26b0:	8391                	srli	a5,a5,0x4
    26b2:	00f7f693          	andi	a3,a5,15
    26b6:	200007b7          	lui	a5,0x20000
    26ba:	01078793          	addi	a5,a5,16 # 20000010 <AHBPrescTable>
    26be:	97b6                	add	a5,a5,a3
    26c0:	0007c683          	lbu	a3,0(a5)
    26c4:	431c                	lw	a5,0(a4)
    26c6:	00d7d7b3          	srl	a5,a5,a3
    26ca:	c31c                	sw	a5,0(a4)
    26cc:	8082                	ret
    26ce:	42dc                	lw	a5,4(a3)
    26d0:	42d4                	lw	a3,4(a3)
    26d2:	6641                	lui	a2,0x10
    26d4:	83c9                	srli	a5,a5,0x12
    26d6:	8bbd                	andi	a5,a5,15
    26d8:	8ef1                	and	a3,a3,a2
    26da:	0789                	addi	a5,a5,2
    26dc:	4645                	li	a2,17
    26de:	00c79363          	bne	a5,a2,26e4 <SystemCoreClockUpdate+0x5c>
    26e2:	47c9                	li	a5,18
    26e4:	ee81                	bnez	a3,26fc <SystemCoreClockUpdate+0x74>
    26e6:	400246b7          	lui	a3,0x40024
    26ea:	8006a683          	lw	a3,-2048(a3) # 40023800 <_eusrstack+0x2001b800>
    26ee:	8ac1                	andi	a3,a3,16
    26f0:	ce89                	beqz	a3,270a <SystemCoreClockUpdate+0x82>
    26f2:	007a16b7          	lui	a3,0x7a1
    26f6:	20068693          	addi	a3,a3,512 # 7a1200 <_data_lma+0x79c4e8>
    26fa:	a821                	j	2712 <SystemCoreClockUpdate+0x8a>
    26fc:	400216b7          	lui	a3,0x40021
    2700:	42d4                	lw	a3,4(a3)
    2702:	00e69613          	slli	a2,a3,0xe
    2706:	fe0656e3          	bgez	a2,26f2 <SystemCoreClockUpdate+0x6a>
    270a:	003d16b7          	lui	a3,0x3d1
    270e:	90068693          	addi	a3,a3,-1792 # 3d0900 <_data_lma+0x3cbbe8>
    2712:	02d787b3          	mul	a5,a5,a3
    2716:	bf49                	j	26a8 <SystemCoreClockUpdate+0x20>

00002718 <ADC1_2_IRQHandler>:
    2718:	a001                	j	2718 <ADC1_2_IRQHandler>

0000271a <handle_reset>:
    271a:	1fffe197          	auipc	gp,0x1fffe
    271e:	10618193          	addi	gp,gp,262 # 20000820 <__global_pointer$>
    2722:	20006117          	auipc	sp,0x20006
    2726:	8de10113          	addi	sp,sp,-1826 # 20008000 <_eusrstack>
    272a:	00002517          	auipc	a0,0x2
    272e:	5ee50513          	addi	a0,a0,1518 # 4d18 <_data_lma>
    2732:	1fffe597          	auipc	a1,0x1fffe
    2736:	8ce58593          	addi	a1,a1,-1842 # 20000000 <_data_vma>
    273a:	82818613          	addi	a2,gp,-2008 # 20000048 <_edata>
    273e:	00c5fa63          	bgeu	a1,a2,2752 <handle_reset+0x38>
    2742:	00052283          	lw	t0,0(a0)
    2746:	0055a023          	sw	t0,0(a1)
    274a:	0511                	addi	a0,a0,4
    274c:	0591                	addi	a1,a1,4
    274e:	fec5eae3          	bltu	a1,a2,2742 <handle_reset+0x28>
    2752:	82818513          	addi	a0,gp,-2008 # 20000048 <_edata>
    2756:	d4c18593          	addi	a1,gp,-692 # 2000056c <_ebss>
    275a:	00b57763          	bgeu	a0,a1,2768 <handle_reset+0x4e>
    275e:	00052023          	sw	zero,0(a0)
    2762:	0511                	addi	a0,a0,4
    2764:	feb56de3          	bltu	a0,a1,275e <handle_reset+0x44>
    2768:	42fd                	li	t0,31
    276a:	bc029073          	csrw	0xbc0,t0
    276e:	42ad                	li	t0,11
    2770:	80429073          	csrw	0x804,t0
    2774:	000062b7          	lui	t0,0x6
    2778:	08828293          	addi	t0,t0,136 # 6088 <_data_lma+0x1370>
    277c:	30029073          	csrw	mstatus,t0
    2780:	ffffe297          	auipc	t0,0xffffe
    2784:	88428293          	addi	t0,t0,-1916 # 4 <_einit>
    2788:	0032e293          	ori	t0,t0,3
    278c:	30529073          	csrw	mtvec,t0
    2790:	e0fff0ef          	jal	ra,259e <SystemInit>
    2794:	00000297          	auipc	t0,0x0
    2798:	d1628293          	addi	t0,t0,-746 # 24aa <main>
    279c:	34129073          	csrw	mepc,t0
    27a0:	30200073          	mret

000027a4 <GPIO_Init>:
    27a4:	459c                	lw	a5,8(a1)
    27a6:	0107f713          	andi	a4,a5,16
    27aa:	00f7f813          	andi	a6,a5,15
    27ae:	c701                	beqz	a4,27b6 <GPIO_Init+0x12>
    27b0:	41d8                	lw	a4,4(a1)
    27b2:	00e86833          	or	a6,a6,a4
    27b6:	0005d583          	lhu	a1,0(a1)
    27ba:	0ff5f713          	andi	a4,a1,255
    27be:	c339                	beqz	a4,2804 <GPIO_Init+0x60>
    27c0:	4118                	lw	a4,0(a0)
    27c2:	4681                	li	a3,0
    27c4:	4e85                	li	t4,1
    27c6:	4f3d                	li	t5,15
    27c8:	02800f93          	li	t6,40
    27cc:	04800293          	li	t0,72
    27d0:	4e21                	li	t3,8
    27d2:	00de9633          	sll	a2,t4,a3
    27d6:	00c5f8b3          	and	a7,a1,a2
    27da:	03161163          	bne	a2,a7,27fc <GPIO_Init+0x58>
    27de:	00269893          	slli	a7,a3,0x2
    27e2:	011f1333          	sll	t1,t5,a7
    27e6:	fff34313          	not	t1,t1
    27ea:	00e37733          	and	a4,t1,a4
    27ee:	011818b3          	sll	a7,a6,a7
    27f2:	00e8e733          	or	a4,a7,a4
    27f6:	05f79f63          	bne	a5,t6,2854 <GPIO_Init+0xb0>
    27fa:	c950                	sw	a2,20(a0)
    27fc:	0685                	addi	a3,a3,1
    27fe:	fdc69ae3          	bne	a3,t3,27d2 <GPIO_Init+0x2e>
    2802:	c118                	sw	a4,0(a0)
    2804:	0ff00713          	li	a4,255
    2808:	04b77563          	bgeu	a4,a1,2852 <GPIO_Init+0xae>
    280c:	4154                	lw	a3,4(a0)
    280e:	4621                	li	a2,8
    2810:	4e85                	li	t4,1
    2812:	4f3d                	li	t5,15
    2814:	02800f93          	li	t6,40
    2818:	04800293          	li	t0,72
    281c:	4e41                	li	t3,16
    281e:	00ce98b3          	sll	a7,t4,a2
    2822:	0115f733          	and	a4,a1,a7
    2826:	02e89263          	bne	a7,a4,284a <GPIO_Init+0xa6>
    282a:	00261713          	slli	a4,a2,0x2
    282e:	1701                	addi	a4,a4,-32
    2830:	00ef1333          	sll	t1,t5,a4
    2834:	fff34313          	not	t1,t1
    2838:	00d376b3          	and	a3,t1,a3
    283c:	00e81733          	sll	a4,a6,a4
    2840:	8ed9                	or	a3,a3,a4
    2842:	01f79d63          	bne	a5,t6,285c <GPIO_Init+0xb8>
    2846:	01152a23          	sw	a7,20(a0)
    284a:	0605                	addi	a2,a2,1
    284c:	fdc619e3          	bne	a2,t3,281e <GPIO_Init+0x7a>
    2850:	c154                	sw	a3,4(a0)
    2852:	8082                	ret
    2854:	fa5794e3          	bne	a5,t0,27fc <GPIO_Init+0x58>
    2858:	c910                	sw	a2,16(a0)
    285a:	b74d                	j	27fc <GPIO_Init+0x58>
    285c:	fe5797e3          	bne	a5,t0,284a <GPIO_Init+0xa6>
    2860:	01152823          	sw	a7,16(a0)
    2864:	b7dd                	j	284a <GPIO_Init+0xa6>

00002866 <GPIO_ReadInputDataBit>:
    2866:	4508                	lw	a0,8(a0)
    2868:	8d6d                	and	a0,a0,a1
    286a:	00a03533          	snez	a0,a0
    286e:	8082                	ret

00002870 <NVIC_PriorityGroupConfig>:
    2870:	82a1a423          	sw	a0,-2008(gp) # 20000048 <_edata>
    2874:	8082                	ret

00002876 <RCC_APB2PeriphClockCmd>:
    2876:	c599                	beqz	a1,2884 <RCC_APB2PeriphClockCmd+0xe>
    2878:	40021737          	lui	a4,0x40021
    287c:	4f1c                	lw	a5,24(a4)
    287e:	8d5d                	or	a0,a0,a5
    2880:	cf08                	sw	a0,24(a4)
    2882:	8082                	ret
    2884:	400217b7          	lui	a5,0x40021
    2888:	4f98                	lw	a4,24(a5)
    288a:	fff54513          	not	a0,a0
    288e:	8d79                	and	a0,a0,a4
    2890:	cf88                	sw	a0,24(a5)
    2892:	8082                	ret

00002894 <Delay_Init>:
    2894:	200007b7          	lui	a5,0x20000
    2898:	0247a783          	lw	a5,36(a5) # 20000024 <SystemCoreClock>
    289c:	007a1737          	lui	a4,0x7a1
    28a0:	20070713          	addi	a4,a4,512 # 7a1200 <_data_lma+0x79c4e8>
    28a4:	02e7d7b3          	divu	a5,a5,a4
    28a8:	0ff7f793          	andi	a5,a5,255
    28ac:	82f18723          	sb	a5,-2002(gp) # 2000004e <p_us>
    28b0:	3e800713          	li	a4,1000
    28b4:	02e787b3          	mul	a5,a5,a4
    28b8:	82f19623          	sh	a5,-2004(gp) # 2000004c <p_ms>
    28bc:	8082                	ret

000028be <Delay_Us>:
    28be:	e000f7b7          	lui	a5,0xe000f
    28c2:	43d8                	lw	a4,4(a5)
    28c4:	4681                	li	a3,0
    28c6:	9b79                	andi	a4,a4,-2
    28c8:	c3d8                	sw	a4,4(a5)
    28ca:	82e1c703          	lbu	a4,-2002(gp) # 2000004e <p_us>
    28ce:	02a70633          	mul	a2,a4,a0
    28d2:	cb90                	sw	a2,16(a5)
    28d4:	cbd4                	sw	a3,20(a5)
    28d6:	4398                	lw	a4,0(a5)
    28d8:	01076713          	ori	a4,a4,16
    28dc:	c398                	sw	a4,0(a5)
    28de:	4398                	lw	a4,0(a5)
    28e0:	02176713          	ori	a4,a4,33
    28e4:	c398                	sw	a4,0(a5)
    28e6:	43d8                	lw	a4,4(a5)
    28e8:	8b05                	andi	a4,a4,1
    28ea:	df75                	beqz	a4,28e6 <Delay_Us+0x28>
    28ec:	4398                	lw	a4,0(a5)
    28ee:	9b79                	andi	a4,a4,-2
    28f0:	c398                	sw	a4,0(a5)
    28f2:	8082                	ret

000028f4 <Delay_Ms>:
    28f4:	e000f7b7          	lui	a5,0xe000f
    28f8:	43d8                	lw	a4,4(a5)
    28fa:	4681                	li	a3,0
    28fc:	9b79                	andi	a4,a4,-2
    28fe:	c3d8                	sw	a4,4(a5)
    2900:	82c1d703          	lhu	a4,-2004(gp) # 2000004c <p_ms>
    2904:	02a70633          	mul	a2,a4,a0
    2908:	cb90                	sw	a2,16(a5)
    290a:	cbd4                	sw	a3,20(a5)
    290c:	4398                	lw	a4,0(a5)
    290e:	01076713          	ori	a4,a4,16
    2912:	c398                	sw	a4,0(a5)
    2914:	4398                	lw	a4,0(a5)
    2916:	02176713          	ori	a4,a4,33
    291a:	c398                	sw	a4,0(a5)
    291c:	43d8                	lw	a4,4(a5)
    291e:	8b05                	andi	a4,a4,1
    2920:	df75                	beqz	a4,291c <Delay_Ms+0x28>
    2922:	4398                	lw	a4,0(a5)
    2924:	9b79                	andi	a4,a4,-2
    2926:	c398                	sw	a4,0(a5)
    2928:	8082                	ret
    292a:	0000                	unimp
    292c:	4700                	lw	s0,8(a4)
    292e:	206f746f          	jal	s0,f9b34 <_data_lma+0xf4e1c>
    2932:	614d                	addi	sp,sp,176
    2934:	6e69                	lui	t3,0x1a
    2936:	4d20                	lw	s0,88(a0)
    2938:	6e65                	lui	t3,0x19
    293a:	0075                	c.nop	29
    293c:	0ab0                	addi	a2,sp,344
    293e:	0000                	unimp
    2940:	0af6                	slli	s5,s5,0x1d
    2942:	0000                	unimp
    2944:	0ada                	slli	s5,s5,0x16
    2946:	0000                	unimp
    2948:	0ae4                	addi	s1,sp,348
    294a:	0000                	unimp
    294c:	0ae4                	addi	s1,sp,348
    294e:	0000                	unimp
    2950:	0ae4                	addi	s1,sp,348
    2952:	0000                	unimp
    2954:	0af6                	slli	s5,s5,0x1d
    2956:	0000                	unimp
    2958:	0af6                	slli	s5,s5,0x1d
    295a:	0000                	unimp
    295c:	0af6                	slli	s5,s5,0x1d
    295e:	0000                	unimp
    2960:	0afa                	slli	s5,s5,0x1e
    2962:	0000                	unimp
    2964:	0afe                	slli	s5,s5,0x1f
    2966:	0000                	unimp
    2968:	0b26                	slli	s6,s6,0x9
    296a:	0000                	unimp
    296c:	0b6a                	slli	s6,s6,0x1a
    296e:	0000                	unimp
    2970:	0b4c                	addi	a1,sp,404
    2972:	0000                	unimp
    2974:	0b56                	slli	s6,s6,0x15
    2976:	0000                	unimp
    2978:	0b56                	slli	s6,s6,0x15
    297a:	0000                	unimp
    297c:	0b56                	slli	s6,s6,0x15
    297e:	0000                	unimp
    2980:	0b6a                	slli	s6,s6,0x1a
    2982:	0000                	unimp
    2984:	0b6a                	slli	s6,s6,0x1a
    2986:	0000                	unimp
    2988:	0b6a                	slli	s6,s6,0x1a
    298a:	0000                	unimp
    298c:	0b6e                	slli	s6,s6,0x1b
    298e:	0000                	unimp
    2990:	0b72                	slli	s6,s6,0x1c
    2992:	0000                	unimp
    2994:	0000                	unimp
	...

00002998 <u8g2_font_6x12_t_cyrillic>:
    2998:	0083 0202 0403 0503 0604 000c 07fe 08fe     ................
    29a8:	01ff 0239 0385 20ac 0005 076a 0721 4339     ..9.... ..j.!.9C
    29b8:	a867 2200 9b07 2756 0159 0b23 4235 1aaf     g.."..V'Y.#.5B..
    29c8:	4caa a869 240a 4d0d 373e 4aaf 9de5 b554     .Li..$.M>7.J..T.
    29d8:	0023 0925 423d ce47 39dc 2605 3d0c 2f42     #.%.=BG..9.&.=B/
    29e8:	98a7 9572 5464 2701 1905 6757 0a28 3ecb     ..r.dT.'..Wg(..>
    29f8:	c537 eb14 0398 0b29 3ecb c727 ab1c 2298     7.....)..>'...."
    2a08:	2a00 3d0a b742 76aa cd5e 2b08 2d0a 3746     .*.=B..v^..+.-F7
    2a18:	38a3 4664 2c11 1b07 4f3e 048d 062d 4e0d     .8dF.,..>O..-..N
    2a28:	0867 062e 4292 0467 0c2f 423d e51f 728c     g....Bg./.=B...r
    2a38:	728d 0046 0930 42bc 454f a4cf 3100 bb08     .rF.0..BOE...1..
    2a48:	2f42 aec9 3201 3d0a 6f42 8ce5 7b72 3308     B/...2.=Bo..r{.3
    2a58:	3d0c 6742 9468 86b3 2d3a 3400 3d0c 3f42     .=Bgh...:-.4.=B?
    2a68:	54cb a1a6 4a33 3500 3d0c e742 2346 8cc3     .T..3J.5.=B.F#..
    2a78:	5a74 3600 3d0c 5742 8ce6 ca46 2d3a 3700     tZ.6.=BW..F.:-.7
    2a88:	3d0d 6742 9468 ca33 6519 0114 0b38 423d     .=Bgh.3..e..8.=B
    2a98:	656f 569d 69d6 3901 3d0c 6f42 9d65 4646     oe.V.i.9.=Boe.FF
    2aa8:	4a39 3a00 aa07 6742 11c4 093b 3e33 46cf     9J.:..Bg..;.3>.F
    2ab8:	246a 3c00 ab07 3746 05d5 083d 4a1d 6867     j$.<..F7..=..Jgh
    2ac8:	0438 083e 46ab 5727 0025 0a3f 423d e56f     8.>..F'W%.?.=Bo.
    2ad8:	ca36 0474 0c40 423d 656f 5235 2352 05c3     6.t.@.=Boe5RR#..
    2ae8:	0a41 423d 656f 463d 03b6 0c42 423d c467     A.=Boe=F..B.=Bg.
    2af8:	a62a c559 00a1 0c43 423d 656f 328d 28ca     *.Y...C.=Boe.2.(
    2b08:	05a7 0d44 423d c467 a62a 6298 438a 4501     ..D.=Bg.*..b.C.E
    2b18:	3d0c e742 1946 948d 4651 4643 3d0d e742     .=B.F...QFCF.=B.
    2b28:	1946 948d 4651 0119 0c47 423d 656f 328d     F...QF..G.=Boe.2
    2b38:	3b8a 002d 0948 423d db27 6463 493b bb08     .;-.H.=B'.cd;I..
    2b48:	6742 aec5 4a01 3d0c 7742 9467 4651 9465     Bg...J.=Bwg.QFe.
    2b58:	4b00 3d0b 2742 54cb 14ea 1cab 0e4c 423d     .K.=B'.T....L.=B
    2b68:	a327 328c 28ca 8ca3 0086 094d 423d af27     '..2.(....M.=B'.
    2b78:	b495 4e3b 3d0a 2742 a9eb dc92 4f3a 3d09     ..;N.=B'....:O.=
    2b88:	6f42 ef65 00b4 0d50 423d a467 87ac 28ca     Boe...P.=Bg....(
    2b98:	8ca3 5100 3d0a 6f42 5765 5192 5205 3d0b     ...Q.=BoeW.Q.R.=
    2ba8:	6742 aca4 2a87 1cab 0b53 423d 656f 370d     Bg...*..S.=Boe.7
    2bb8:	69d4 5401 3d0e 6742 8cc8 ca32 a328 228c     .i.T.=Bg..2.(.."
    2bc8:	5500 3d08 2742 4efb 560b 3d0a 2742 53bb     .U.=B'.N.V.=B'.S
    2bd8:	7299 5704 3d09 2742 257b 05d5 0a58 423d     .r.W.=B'{%..X.=B
    2be8:	eb27 5754 0eb5 0c59 423d eb27 6754 5194     '.TW..Y.=B'.Tg.Q
    2bf8:	1146 0a5a 423d 6867 bb94 10d1 085b 3ecb     F.Z.=Bgh....[..>
    2c08:	c467 073e 0d5c 423d c327 328c 30cc 0ca3     g.>.\.=B'..2.0..
    2c18:	5d03 cb08 673e 39f6 5e02 1d07 3756 3aa7     .]..>g.9.^..V7.:
    2c28:	065f 3a0d 0867 0660 569b 1727 0a61 422d     _..:g.`..V'.a.-B
    2c38:	c36f 7434 011a 0c62 423d a327 468c f6ca     o.4t..b.=B'..F..
    2c48:	0050 0a63 422d 656f 728d 005a 0b64 423d     P.c.-Boe.rZ.d.=B
    2c58:	651f 8694 d3b6 6508 2d0a 6f42 a1e5 5c32     .e.....e.-Bo..2\
    2c68:	6600 3d0b 5742 7956 9467 0651 0b67 3a3d     .f.=BWVyg.Q.g.=:
    2c78:	656f 8d3b d28c 6802 3d0b 2742 8ca3 ca46     oe;....h.=B'..F.
    2c88:	00ee 0869 42bb 232f 1ad9 0a6a 3acc 633f     ..i..B/#..j..:?c
    2c98:	96dd 0149 0c6b 423d a327 b28c b34c 01ca     ..I.k.=B'...L...
    2ca8:	076c 42bb f647 6d1a 2d0a 4742 54b5 4952     l..BG..m.-BG.TRI
    2cb8:	6e15 2d08 2742 da99 6f0e 2d09 6f42 3b65     .n.-B'...o.-Boe;
    2cc8:	002d 0c70 3a3d a467 0f6c 5195 0046 0b71     -.p.=:g.l..QF.q.
    2cd8:	3a3d 686f 8d3b 328c 720a 2d0b 2742 1a99     =:oh;..2.r.-B'..
    2ce8:	9465 0011 0a73 422d 686f e1b8 0050 0c74     e...s.-Boh..P.t.
    2cf8:	423d a337 6438 1946 2865 0875 422d 3b27     =B7.8dF.e(u.-B';
    2d08:	0a95 0976 422d db27 8ea9 7700 2d09 2742     ..v.-B'....w.-B'
    2d18:	495b 0175 0978 422d a727 aaba 7903 3d0a     [Iu.x.-B'....y.=
    2d28:	273a a9db 236e 7a00 2d08 6742 f6e8 7b10     :'..n#.z.-Bg...{
    2d38:	cb09 373e 2ac5 3ac7 067c 3f49 01e7 0a7d     ..>7.*.:|.I?..}.
    2d48:	3ecb c727 c53a 022a 097e 4a1d aa2f 1324     .>'.:.*.~..J/.$.
    2d58:	0000 0000 0408 0464 ffd0 04ff 1100 4255     ......d.......UB
    2d68:	c32f 8d4c 328d 291a 8ca3 0086 0104 4d0f     /.L..2.).......M
    2d78:	af42 63c6 8ca3 ca46 a328 0421 0f02 3a4d     B..c..F.(.!...M:
    2d88:	6767 d194 62ac 198a 0545 0304 5510 bf42     gg...b..E....UB.
    2d98:	c6a6 1946 9465 4651 0119 0404 3d0d 6f42     ..F.e.QF.....=Bo
    2da8:	8d65 ca46 a728 0405 0c05 423d 656f 370d     e.F.(.....=Boe.7
    2db8:	69d4 0401 0906 42bb c567 01ae 0704 cb0a     .i.....Bg.......
    2dc8:	2742 15e5 06bb 0804 3d0d 7742 9467 4651     B'.......=Bwg.QF
    2dd8:	9465 0400 0e09 423d a64f 6298 9552 164a     e.....=BO..bR.J.
    2de8:	0400 0e0a 423d c527 5314 a91c c952 0402     ....=B'..S..R...
    2df8:	0d0b 423d 6767 d194 62ac 018a 0c04 550e     ..=Bgg...b.....U
    2e08:	bf42 b2a6 a54c b14e 01ca 0d04 550e 2f42     B...L.N......UB/
    2e18:	4cc3 7365 a9a5 0075 0e04 550e 2742 8da7     .Les..u....UB'..
    2e28:	3bb3 8c8d 02d2 0f04 4d0b 273a 1efb a333     .;.......M:'..3.
    2e38:	0408 0b10 423d 656f 463d 03b6 1104 3d0e     ....=Boe=F.....=
    2e48:	6742 8ca4 1a32 eb29 00a1 1204 3d0d 6742     Bg..2.)......=Bg
    2e58:	aca4 ca87 287a 0400 0e13 423d 46e7 6519     ....z(....=B.F.e
    2e68:	5194 1946 0401 0f14 3e45 a657 6298 298a     .QF.....E>W..b.)
    2e78:	34a6 0076 1504 3d0d e742 1946 948d 4651     .4v....=B.F...QF
    2e88:	0443 0c16 423d 2527 ed55 2abc 0455 0d17     C...=B'%U..*U...
    2e98:	423d e56f d28c 3a86 002d 1804 3d0b 2742     =Bo....:-....=B'
    2ea8:	2b9b ad4d 0403 0d19 4255 a727 b38d d2b9     .+M.....UB'.....
    2eb8:	3ad4 1a04 3d0c 2742 54cb 14ea 1cab 1b04     .:...=B'.T......
    2ec8:	3d0d 7742 14c5 4c53 4531 041d 0a1c 423d     .=Bw..SL1E....=B
    2ed8:	af27 b495 043b 0a1d 423d db27 6463 043b     '...;...=B'.cd;.
    2ee8:	0a1e 423d 656f b4ef 0400 081f 423d f6e7     ..=Boe......=B..
    2ef8:	041d 0e20 423d a467 87ac 28ca 8ca3 0400     .. .=Bg....(....
    2f08:	0d21 423d 656f 328d 28ca 05a7 2204 3d0f     !.=Boe.2.(...".=
    2f18:	6742 8cc8 ca32 a328 228c 0400 0c23 423d     Bg..2.(.."..#.=B
    2f28:	bb27 c8d3 2d28 0400 0c24 423d af37 254a     '...(-..$.=B7.J%
    2f38:	ed55 0408 0b25 423d eb27 5754 0eb5 2604     U...%.=B'.TW...&
    2f48:	4d11 273a 98a6 8a62 a629 8698 1946 0405     .M:'..b.)...F...
    2f58:	0d27 423d db27 6469 5194 0146 2804 3d0f     '.=B'.id.QF..(.=
    2f68:	2742 9525 5254 2549 c695 0400 1129 3a4d     B'%.TRI%....).M:
    2f78:	2527 5495 4952 9525 46c6 0519 2a04 3d0d     '%.TRI%..F...*.=
    2f88:	4742 8ca3 9a32 4c55 040b 0c2b 423d db27     BG..2.UL..+.=B'.
    2f98:	2553 6695 0400 0b2c 42bc d727 ca2b 0091     S%.f..,..B'.+...
    2fa8:	2d04 3d0d 6f42 8ce5 c8d2 a748 0405 0f2e     .-.=Bo....H.....
    2fb8:	423d a627 a54a 5491 4952 0026 2f04 3d0c     =B'.J..TRI&../.=
    2fc8:	6f42 9d68 4c46 0ea5 3004 2d0b 6f42 34c3     Boh.FL...0.-Bo.4
    2fd8:	1a74 0401 0c31 423d 656f 5234 d3b6 0402     t...1.=Boe4R....
    2fe8:	0b32 422d a467 543c 0a1e 3304 2d0c e742     2.-Bg.<T...3.-B.
    2ff8:	1946 9465 0011 3404 350c 573e 98a6 4a62     F.e....4.5>W..bJ
    3008:	0763 3504 2d0b 6f42 a1e5 5c32 0400 0a36     c..5.-Bo..2\..6.
    3018:	422d 5527 af3b 0406 0b37 422d e56f 72a8     -B'U;...7.-Bo..r
    3028:	005a 3804 2d0a 2742 95cb 0ea6 3904 450d     Z..8.-B'.....9.E
    3038:	2742 8da7 5cb3 ea69 0400 0a3a 42ac aa27     B'...\i...:..B'.
    3048:	5324 0419 0b3b 422d c577 5314 01d4 3c04     $S..;.-Bw..S...<
    3058:	2d0a 2742 95af 0eb4 3d04 2d0a 2742 31eb     .-B'.....=.-B'.1
    3068:	0eb2 3e04 2d0a 6f42 3b65 002d 3f04 2d08     ...>.-Boe;-..?.-
    3078:	e742 0776 4004 3d0d 673a 6ca4 950f 4651     B.v..@.=:g.l..QF
    3088:	0400 0b41 422d 656f 728d 005a 4204 2d0c     ..A.-Boe.rZ..B.-
    3098:	6742 8cc8 ca32 0228 4304 3d0c 273a d3bb     Bg..2.(..C.=:'..
    30a8:	28c8 002d 4404 4d0f 373a bca3 952a b554     .(-..D.M:7..*.T.
    30b8:	8a33 0400 0a45 422d a727 aaba 0403 0f46     3...E.-B'.....F.
    30c8:	3a3d a627 6298 698a 9468 0051 4704 2d0b     =:'..b.ih.Q..G.-
    30d8:	2742 34eb ca32 0428 0c48 422d 2527 5495     B'.42.(.H.-B'%.T
    30e8:	6952 040c 0f49 3a3d 2527 5495 6952 946c     Ri..I.=:'%.TRil.
    30f8:	0051 4a04 2d0b 4742 8ca3 b566 0400 0a4b     Q..J.-BG..f...K.
    3108:	422d eb27 d2a9 040c 0a4c 42ac e727 4715     -B'.....L..B'..G
    3118:	0402 0a4d 42ac a367 47b4 0402 0c4e 422d     ..M..Bg..G..N.-B
    3128:	a627 246a 6495 0402 0a4f 42ac c46f 92b4     '.j$.d..O..Bo...
    3138:	040c 0d50 4245 c32f ae4c 543c 0b86 5104     ..P.EB/.L.<T...Q
    3148:	3d0c af42 56a6 2a1e 05c3 5204 4d0f 2f3a     .=B..V.*...R.M:/
    3158:	8cef 1566 cc53 2728 0400 0e53 4245 a6bf     ..f.S.('..S.EB..
    3168:	46c6 6519 1194 0400 0a54 42ac e46f d195     .F.e....T..Bo...
    3178:	0400 0b55 422d 686f e1b8 0050 5604 b309     ..U.-Boh..P..V..
    3188:	2f42 5923 040d 0957 42b3 6527 0d59 5804     B/#Y..W..B'eY..X
    3198:	c40b 3f3a 5d63 a4cb 0400 0b59 422d a64f     ..:?c]....Y.-BO.
    31a8:	5498 0165 5a04 2d0c 2742 14c5 aa47 002c     .Te..Z.-B'..G.,.
    31b8:	5b04 3d0c 2f42 8cef 1566 0c53 5c04 c40c     .[.=B/..f.S..\..
    31c8:	b742 51c6 9925 00ca 5d04 450d 2f42 4cc3     B..Q%....].EB/.L
    31d8:	b965 d4d2 0401 0e5e 3a55 a727 b38d 8d3b     e.....^.U:'...;.
    31e8:	d28c 0402 0b5f 3a3d bb27 ccc7 0228 6004     ...._.=:'...(..`
    31f8:	3d0c af42 256d 5495 0017 6104 2d0a af42     .=B.m%.T...a.-B.
    3208:	92ad 02ea 6204 3d0d 2f42 988f acd1 5a62     .....b.=B/....bZ
    3218:	0400 0d63 423d a32f 623c b346 005a 6404     ..c.=B/.<bF.Z..d
    3228:	3d0d 2742 98ae 58e2 c531 0428 0b65 422d     .=B'...X1.(.e.-B
    3238:	ae27 5638 028c 6604 3d0d 3742 98a7 31ea     '.8V...f.=B7...1
    3248:	5252 0405 0c67 4235 a737 ea98 5231 0401     RR..g.5B7...1R..
    3258:	0d68 423d a627 d298 46b8 691a 6904 2d0b     h.=B'....F.i.i.-
    3268:	2742 98a6 1ac6 0469 0d6a 4245 4ee7 8a65     B'....i.j.EB.Ne.
    3278:	52ab 1549 6b04 350b e742 e54e 54aa 0401     .RI..k.5B.N..T..
    3288:	0f6c 4246 d0e7 19aa 4a87 ad2b 0016 6d04     l.FB.....J+....m
    3298:	360d e742 cd48 5438 2d5a 0400 116e 3a65     .6B.H.8TZ-..n.e:
    32a8:	ceaf cae4 4519 330d 2b4a 05c3 6f04 550f     .....E.3J+...o.U
    32b8:	af3a e4ce 51ca b4c3 5c32 0400 0e70 423d     :....Q..2\..p.=B
    32c8:	2527 5495 33b5 28ca 0402 0c71 422d 2527     '%.T.3.(..q.-B'%
    32d8:	ed55 228c 0400 0c72 423d 656f 463d 69d6     U.."..r.=Boe=F.i
    32e8:	0401 0b73 422d e56f 7231 005a 7404 3d0d     ..s.-Bo.1rZ..t.=
    32f8:	2742 14cb 98ab ca62 0411 0b75 422d cb27     B'....b...u.-B'.
    3308:	a62a 011c 7604 5510 2742 61b6 2996 3156     *....v.UB'.a.)V1
    3318:	94c5 0023 7704 450d 2742 61b6 5596 394c     ..#..w.EB'.a.UL9
    3328:	0402 1078 3a4d a72f 6298 691a 95a4 ca34     ..x.M:/..b.i..4.
    3338:	0409 0d79 3a3d 1d2f a469 3495 09ca 7a04     ..y.=:/.i..4...z
    3348:	550c 373e 4aaf 557b 023b 7b04 450c 373e     .U>7.J{U;..{.E>7
    3358:	4aaf d55b 008e 7c04 4d0c 6f42 1993 ecc5     .J[....|.MBo....
    3368:	02ea 7d04 3d0b 6f42 5593 aad2 040b 0e7e     ...}.=Bo.U....~.
    3378:	4255 aae7 aa71 a4ad ea92 0402 0d7f 4245     UB..q.........EB
    3388:	aae7 aa71 5255 005d 8004 5510 6f3a 1b65     ..q.UR]....U:oe.
    3398:	9465 8651 651b 0094 8104 3d0d 6f3e 8d65     e.Q..e.....=>oe.
    33a8:	dc32 a328 0404 0c82 4635 e537 6494 5395     2.(.....5F7..d.S
    33b8:	0404 0a83 5e1e 8e1f 21a1 0400 0884 6216     .....^...!.....b
    33c8:	666f 0401 0885 6215 c96f 0400 0886 6215     of.....bo......b
    33d8:	456f 0401 0887 6216 c74f 0401 1188 3a66     oE.....bO.....f:
    33e8:	a32f ca9a e6a8 8caf 2a6a 02a3 8904 6611     /.......j*.....f
    33f8:	2f3a 8ca3 8666 bf9a ca32 6668 0428 0f8a     :/..f...2.hf(...
    3408:	3a65 a727 b38d d2bc ba9c 0946 8b04 5d0f     e:'.......F....]
    3418:	273a 8da7 b9b3 d4d2 4a35 0400 0d8c 4245     :'......5J....EB
    3428:	a32f 33bc 559a 0b4c 8d04 3d0c 2f42 8cef     /..3.UL....=B/..
    3438:	1566 02d3 8e04 450e 6742 6ca4 a1a5 46b2     f......EBg.l...F
    3448:	0119 8f04 450e 673a 6ca4 a1a5 46b2 0119     .....E:g.l...F..
    3458:	9004 4d11 1f42 3465 4646 6519 5194 1946     ...MB.e4FF.e.QF.
    3468:	0401 0f91 423d 651f 4634 1946 9465 0011     ....=B.e4FF.e...
    3478:	9204 3d0e 6f42 8ca4 88f2 6519 0194 9304     ...=Bo.....e....
    3488:	2d0b 6f42 3ca4 4662 0419 0d94 3e4d 46e7     .-Bo.<bF....M>.F
    3498:	8d19 dd94 0015 9504 3d0b e73e 2346 bb65     .........=>.F#e.
    34a8:	0402 0e96 3a4e f527 4ce7 d2fd c330 0400     ....N:'..L..0...
    34b8:	0f97 3a3e 9527 651b 5334 30d2 00c3 9804     ..>:'..e4S.0....
    34c8:	550f 6f3a 8ce5 8672 e919 6bb4 0400 0c99     .U:o..r....k....
    34d8:	3a45 e56f ea1a 6bb4 0400 109a 3a4e a727     E:o....k....N:'.
    34e8:	6558 ea8d 6758 619c 0400 0d9b 3a3d a627     Xe..Xg.a....=:'.
    34f8:	a752 c358 028c 9c04 3d0d 2742 ab25 29d4     R.X......=B'%..)
    3508:	d526 0400 0b9d 422d 2527 266b 00d5 9e04     &.....-B'%k&....
    3518:	3d0c 2f42 d48e 29d4 3156 9f04 450d 2f42     .=B/...)V1...EB/
    3528:	bca3 2a63 8a75 0405 0ea0 4245 a647 4a98     ..c*u.....EBG..J
    3538:	53ad 62ac 0400 0aa1 422d a647 a752 0458     .S.b....-BG.R.X.
    3548:	12a2 3a55 a627 6298 291a 98a6 8a62 651a     ..U:'..b.)..b..e
    3558:	0414 0fa3 3a3d a627 4698 298a 946a 0051     ....=:'..F.)j.Q.
    3568:	a404 4510 2742 148d 9c53 a629 6298 008a     ...EB'..S.)..b..
    3578:	a504 2d0c 2742 148d 8a67 0229 a604 5511     ...-B'..g.)....U
    3588:	673a 98a6 5262 4a95 a92a e51a 0404 0ea7     :g..bR.J*.......
    3598:	3a3d a667 5498 6aa5 1394 0400 0fa8 3e4d     =:g..T.j......M>
    35a8:	686f 5314 92a5 76aa 0286 a904 3d0c 6f3e     oh.S...v.....=>o
    35b8:	1465 6b53 2867 aa04 5510 6f3a 8d65 ca32     e.Skg(...U:oe.2.
    35c8:	a328 769c 0986 ab04 3d0d 6f3a 8d65 da72     (..v.....=:oe.r.
    35d8:	2619 0400 12ac 3a55 c867 328c 28ca 8ca3     .&....U:g..2.(..
    35e8:	d232 a328 0404 0ead 3a3d 2ae7 ca33 a348     2.(.....=:.*3.H.
    35f8:	128c 0400 0dae 423d eb27 6754 5194 1146     ......=B'.Tg.QF.
    3608:	af04 3d0d 273a 54eb 9467 4651 0411 0db0     ...=:'.Tg.QF....
    3618:	423d eb27 0d54 5199 1146 b104 3d0d 273a     =B'.T..QF....=:'
    3628:	54eb 990d 4651 0411 11b2 3a4e a727 531c     .T..QF....N:'..S
    3638:	1946 3995 8ce5 0c33 b304 3e0f 273a 94c7     F..9..3....>:'..
    3648:	4651 ce65 c338 0400 12b4 3a55 9567 a629     QFe.8.....U:g.).
    3658:	6298 298a 91a6 4651 0401 0fb5 3a45 9567     .b.)..QF....E:g.
    3668:	a629 6298 191a 1465 b604 5512 273a 98a6     )..b..e....U:'..
    3678:	8a62 c629 328d 28d2 00a3 b704 450f 273a     b.)..2.(.....E:'
    3688:	98a6 dc62 2328 328d 040a 0eb8 4245 5b27     ..b.(#.2....EB'[
    3698:	5549 a623 3298 040a 0cb9 4235 5b27 88d5     IU#..2....5B'[..
    36a8:	a329 0400 0cba 423d a327 468c eeca 0400     ).....=B'..F....
    36b8:	0abb 42bc d727 9a2b 0401 0ebc 4245 5657     ...B'.+.....EBWV
    36c8:	c531 32b1 518a 0401 0cbd 4235 c657 32b1     1..2.Q....5BW..2
    36d8:	518a 0401 10be 3a55 5657 c531 32b1 518a     .Q....U:WV1..2.Q
    36e8:	9867 0400 0ebf 3a45 c657 32b1 518a 9867     g.....E:W..2.Qg.
    36f8:	0400 09c0 42c3 c567 035e c104 5510 2742     .....Bg.^....UB'
    3708:	8da7 5253 5549 52ab 1549 c204 450c 2742     ..SRIU.RI....EB'
    3718:	8da7 b553 6af3 c304 4d0f 273a 54cb 14ea     ..S..j...M:'.T..
    3728:	9cab 5451 0400 0cc4 3a3c aa27 5324 9399     ..QT....<:'.$S..
    3738:	0402 10c5 3a55 c577 5314 314c ad45 946b     ....U:w..SL1E.k.
    3748:	0400 0dc6 3a3d c577 5314 35d4 004a c704     ....=:w..S.5J...
    3758:	550d 273a 63db 7764 5146 0401 0dc8 3a3d     .U:'.cdwFQ....=:
    3768:	eb27 b231 28ce 002a c904 550d 273a 63db     '.1..(*....U:'.c
    3778:	7764 128d 0400 0cca 3a3d eb27 b231 51ae     dw......=:'.1..Q
    3788:	0402 0ecb 3a55 7b27 91a7 d651 2519 0400     ....U:'{..Q..%..
    3798:	0dcc 3a45 db27 6469 7594 0946 cd04 550f     ..E:'.id.uF....U
    37a8:	273a 91af 5256 db49 4a35 0400 0cce 3a3d     :'..VRI.5J....=:
    37b8:	af27 b495 51ae 0402 07cf 42c1 10e7 d004     '....Q.....B....
    37c8:	4d0d 2742 4da7 acad c8c7 043a 0dd1 4245     .MB'.M....:...EB
    37d8:	a727 6d4d 8698 234e d204 4d0c af42 56a6     '.Mm..N#...MB..V
    37e8:	63d6 3b64 d304 3d0c af42 36a6 434c 11a7     .cd;...=B..6LC..
    37f8:	d404 3d0d 6f42 98a8 48e2 8a65 0469 0ad5     ...=Bo...He.i...
    3808:	422d a76f 5ab4 040b 0fd6 424d a727 c78d     -Bo..Z....MB'...
    3818:	2346 9465 10d1 d704 450d 2742 4da7 3cad     F#e......EB'.M.<
    3828:	8654 040b 0dd8 423d e56f c68c 3ac8 002d     T.....=Bo....:-.
    3838:	d904 2d0b 6f42 31c3 5a72 0400 0eda 424d     ...-Bo.1rZ....MB
    3848:	a6af ce56 8c68 d3ac 0402 0cdb 423d a6af     ..V.h.......=B..
    3858:	1c36 a723 0405 0fdc 424d c6af a929 aaa4     6.#.....MB..)...
    3868:	a955 0aa4 dd04 3d0b af42 a9c6 79da 0435     U......=B....y5.
    3878:	0ede 424d a6af ce56 6a28 d3a8 0402 0cdf     ..MB..V.(j......
    3888:	423d a6af 8e56 a72a 0405 0ce0 423d e867     =B..V.*.....=Bg.
    3898:	437a 169d 0400 0ce1 3a3d e867 437a 169d     zC......=:g.zC..
    38a8:	0400 0de2 424d 6867 cd98 a695 01d6 e304     ....MBgh........
    38b8:	3d0c 6742 9868 4ae5 0753 e404 4d0c af42     .=Bgh..JS....MB.
    38c8:	d9c6 695c 1d6a e504 3d0c af42 59c6 34ae     ..\ij....=B..Y.4
    38d8:	0075 e604 4d0b af42 56a6 4ef6 040b 0be7     u....MB..V.N....
    38e8:	423d a6af b656 02d3 e804 3d0c 6f42 3d65     =B..V......=Boe=
    38f8:	d646 0169 e904 2d0b 6f42 31e5 5a72 0400     F.i....-Bo.1rZ..
    3908:	0eea 424d a6af d656 6463 169d 0400 0ceb     ..MB..V.cd......
    3918:	423d a6af 1e56 a723 0405 0fec 424d c6af     =B..V.#.....MB..
    3928:	661b 4698 3946 004d ed04 bc0c 2742 b865     .f.FF9M.....B'e.
    3938:	da51 0123 ee04 4d0e 6742 9868 a54d d232     Q.#....MBgh.M.2.
    3948:	0169 ef04 4d0e 673a 9868 34ed d232 0169     i....M:gh..42.i.
    3958:	f004 4d0e af42 d9c6 2a54 9d23 0016 f104     ...MB...T*#.....
    3968:	4d0e af3a d9c6 234e 9d23 0016 f204 550f     .M:...N##......U
    3978:	2f42 8cca a9b3 4654 2d3a 0400 0ff3 3a55     B/....TF:-....U:
    3988:	ca2f b38c 469d 3a46 002d f404 4d0e af42     /....FF:-....MB.
    3998:	d9c6 234e 8ca3 0a32 f504 3d0d af42 59c6     ..N#..2....=B..Y
    39a8:	91a7 4651 0401 0ff6 3e45 46e7 6519 5194     ..QF....E>.F.e.Q
    39b8:	1a46 0065 f704 b40a 673e 5ae8 0047 f804     F.e.....>g.ZG...
    39c8:	4d0d af42 d9c6 2a9e 34a9 0403 0cf9 423d     .MB....*.4....=B
    39d8:	c6af 4f59 6695 0400 0ffa 3a4d a46f f28c     ..YO.f....M:o...
    39e8:	28ce 8d23 0672 fb04 3d0d 6f3a bca4 d233     .(#.r....=:o..3.
    39f8:	6728 0400 0efc 3a4d eb27 5754 ceb5 2728     (g....M:'.TW..('
    3a08:	0400 0cfd 3a3d a727 aaba ca33 0409 0cfe     ....=:'...3.....
    3a18:	423d eb27 0d54 d6d5 0401 0bff 422d a727     =B'.T.......-B'.
    3a28:	a86a 0076 0005 3d0c 1f42 9465 b686 08d3     j.v....=B.e.....
    3a38:	0105 bc0a bf42 d11a 034c 0205 3d0d 3742     ....B...L....=B7
    3a48:	2ca3 5253 5549 050b 0d03 423d a337 b28c     .,SRIU....=B7...
    3a58:	494c 0b55 0405 3d0e 4742 8cc3 86a2 a629     LIU....=BG....).
    3a68:	009c 0505 350c 4742 8cc3 ac72 0272 0605     .....5BG..r.r...
    3a78:	4c0c 473a 9ca3 ca34 1759 0705 440c 473a     .L:G..4.Y....D:G
    3a88:	1ca3 ca33 00ba 0805 3d0e e742 298a a4a6     ..3......=B..)..
    3a98:	4a92 0132 0905 2d0c e742 298a 24a6 0013     .J2....-B..).$..
    3aa8:	0a05 3d0f 2742 14c5 5c53 a92a 1324 0500     ...=B'..S\*.$...
    3ab8:	0c0b 422d c527 9714 324a 0501 0c0c 423d     ..-B'...J2....=B
    3ac8:	656f e28d 69d6 0501 0b0d 422d 686f 7714     oe...i....-Boh.w
    3ad8:	005a 0e05 3d0e 6742 8cc8 2a32 4c53 0139     Z....=Bg..2*SL9.
    3ae8:	0f05 2d0c 6742 8cc8 aa32 0013 1005 3d0d     ...-Bg..2......=
    3af8:	6f42 0d68 4665 2d39 0500 0b11 422d e86f     Boh.eF9-....-Bo.
    3b08:	7324 005a 1205 3e0b e742 fd8a a36a 0508     $sZ....>B...j...
    3b18:	0b13 3e36 8ae7 72bd 1146 1405 3e0c 4742     ..6>...rF....>BG
    3b28:	cff5 4baa 00a6 1505 2e0b 4742 59f5 9925     ...K......BG.Y%.
    3b38:	0502 0b16 423d aa47 aae4 00ed 1705 350c     ....=BG........5
    3b48:	473e 552a 5aaa 0023 1805 3d0d 6f42 98a8     >G*U.Z#....=Bo..
    3b58:	2af2 4c53 0503 0a19 422d b56f 1956 0505     .*SL....-Bo.V...
    3b68:	0b1a 423d 656f 9257 0551 1b05 3d0c 6f3a     ..=BoeW.Q....=:o
    3b78:	3b68 8c8d 0a32 1c05 3d0a 2742 257b 05d5     h;..2....=B'{%..
    3b88:	1d05 2d0a 2742 495b 0175 1e05 3d0d 2742     ...-B'[Iu....=B'
    3b98:	9925 9daa 9562 0503 0b1f 422d 2527 9699     %...b.....-B'%..
    3ba8:	394c 2005 4e11 473a 94e5 4e53 7532 94c9     L9. .N:G..SN2u..
    3bb8:	4661 0509 0e21 3e36 e547 9394 494c 0ca6     aF..!.6>G...LI..
    3bc8:	0503 1122 3a4d c527 5314 a91c 4952 28d5     ..".M:'..S..RI.(
    3bd8:	0027 2305 3d0e 273a 14c5 aa47 8d54 0272     '..#.=:'..G.T.r.
    3be8:	0000 0000                                   ....

00003bec <u8g2_font_haxrcorp4089_t_cyrillic>:
    3bec:	009e 0202 0404 0401 0805 000b 07fe 08fe     ................
    3bfc:	01ff 0238 0387 208a 0005 0251 0721 5171     ..8.... ..Q.!.qQ
    3c0c:	5432 2200 3307 9299 00ac 0a23 d355 0d56     2T.".3....#.U.V.
    3c1c:	0d55 0155 0c24 cf95 579a f2a5 aa4e 11da     U.U.$....W..N...
    3c2c:	0d25 1177 9197 6d8a 6198 4697 2609 760b     %.w....m.a.F.&.v
    3c3c:	a6f1 5b63 a4ca 0ae3 0527 5931 2832 9308     ..c[....'.1Y2(..
    3c4c:	9a8f eeca 2902 9308 928f aecb 2a12 5509     .....).......*.U
    3c5c:	5ad5 ab55 0119 0a2b d355 519a 321c 08a3     .ZU...+.U..Q.2..
    3c6c:	072c 6f32 1496 2d00 1506 32d7 2e04 1105     ,.2o...-...2....
    3c7c:	1251 0e2f 1177 338f 30cc 0cc3 cc33 1330     Q./.w..3.0..3.0.
    3c8c:	0b30 d175 b2b6 695c b4ea 3100 7206 b671     0.u...\i...1.rq.
    3c9c:	327a 750a b6d1 4672 3db9 3304 750c b6d1     z2.u..rF.=.3.u..
    3cac:	4672 4351 169d 3400 750c 9ed1 2a65 d0d3     rFQC...4.u..e*..
    3cbc:	2519 3500 750c 72d1 91a3 4661 2d3a 3600     .%.5.u.r..aF:-.6
    3ccc:	750c b6d1 46b2 6523 169d 3700 750d 32d1     .u...F#e...7.u.2
    3cdc:	ca34 6728 3394 008a 0b38 d175 b2b6 2b4e     4.(g.3..8.u...N+
    3cec:	b4eb 3900 750c b6d1 4eb2 2323 169d 3a00     ...9.u...N##...:
    3cfc:	4106 1253 3b03 6208 966f 5261 3c00 5307     .AS..;.bo.aR.<.S
    3d0c:	9a93 02ea 083d d535 3432 021c 073e 9353     ....=.5.24..>.S.
    3d1c:	ab92 3f12 750b b6d1 4672 a6b9 0023 1140     ...?.u..rF..#.@.
    3d2c:	3188 5637 72c6 98a9 4c54 a472 8e4c 4105     .17V.r..TLr.L..A
    3d3c:	750a b6d1 1eb2 db23 4201 750c 32d1 d652     .u....#..B.u.2R.
    3d4c:	6543 143d 4300 750c b6d1 46b2 6519 d394     Ce=..C.u...F.e..
    3d5c:	4402 7509 32d1 f652 0a1e 0c45 d175 a372     .D.u.2R...E.u.r.
    3d6c:	468c 28ca 21a3 0d46 d175 a372 468c 28ca     .F.(.!F.u.r..F.(
    3d7c:	8ca3 4700 750b b6d1 46b2 eb71 00b4 0948     ...G.u...Fq...H.
    3d8c:	d175 ed92 b231 491d 7106 7251 4a04 750d     u...1..I.qQr.J.u
    3d9c:	8ed1 ca32 a328 748c 005a 0b4b d175 6592     ..2.(..tZ.K.u..e
    3dac:	752a 558a 4c0e 750d 92d1 4651 6519 5194     *u.U.L.u..QF.e.Q
    3dbc:	4346 0e4d 1177 e193 955e 1a8c a86a 0061     FCM.w...^...j.a.
    3dcc:	0a4e d175 f592 4954 1d6e 094f d175 b2b6     N.u...TIn.O.u...
    3ddc:	5a77 5000 750d 32d1 d652 6543 5194 0046     wZ.P.u.2R.Ce.QF.
    3dec:	0951 cf85 b2b6 da77 5230 750b 32d1 d652     Q.....w.0R.u.2R.
    3dfc:	9543 0e55 0b53 d175 b2b6 1b86 b4ea 5400     C.U.S.u........T
    3e0c:	750d 32d1 4664 6519 5194 1146 0855 d175     .u.2dF.e.QF.U.u.
    3e1c:	7d92 05a7 0b56 d175 ed92 a654 519c 5704     .}..V.u...T..Q.W
    3e2c:	770e 1311 8ca3 ca32 a328 2cac 5800 750a     .w....2.(..,.X.u
    3e3c:	92d1 aa75 5aab 5907 750c 92d1 aa75 ca33     ..u..Z.Y.u..u.3.
    3e4c:	a328 5a08 750a 32d1 ca34 68dd 5b08 9308     (..Z.u.24..h.[..
    3e5c:	328f 9f62 5c03 770e 9311 4ca9 2a65 9953     .2b..\.w...Le*S.
    3e6c:	54ca 5d00 9308 328f 1cfb 5e01 3507 9ad9     .T.]...2...^.5..
    3e7c:	1d53 065f d115 0432 0660 9933 0b92 0861     S._...2.`.3...a.
    3e8c:	b154 a236 0699 0a62 b174 f392 e68a 0048     T.6...b.t.....H.
    3e9c:	0963 b154 a2a6 498e 6401 7409 5eb1 688d     c.T....I.d.t.^.h
    3eac:	01a6 0965 b154 e2a6 48d8 6601 7208 a671     ..e.T....H.f.rq.
    3ebc:	aad2 6700 740a 36ad 99a2 5276 6800 7409     ...g.t.6..vR.h.t
    3ecc:	92b1 8af3 00ce 0769 5171 8692 6a00 9208     ......i.qQ...j..
    3edc:	966d 9753 6b02 740a 92b1 954b 2a64 6c03     m.S..k.t..K.d*.l
    3eec:	7106 7251 6d04 570b b311 8c54 ca32 0b28     .qQr.m.W..T.2.(.
    3efc:	076e b154 a2b2 6f33 5409 a6b1 99a2 0014     n.T...3o.T......
    3f0c:	0a70 ad74 a2b2 5239 00ce 0971 ad74 a236     p.t...9R..q.t.6.
    3f1c:	7699 7201 5307 3291 1362 0773 9153 f3b6     .v.r.S.2b.s.S...
    3f2c:	7402 7309 1691 8ad3 002d 0775 b154 9d12     .t.s....-.u.T...
    3f3c:	7669 5408 12b1 499d 7701 570b 1311 8ca3     iv.T...I.w.W....
    3f4c:	ca32 02ca 0978 b154 6512 5152 7906 7409     2...x.T..eRQ.y.t
    3f5c:	12ad 699d 0527 097a b154 7232 7952 7b04     ...i'.z.T.2rRy.{
    3f6c:	9309 9a8f 9562 1d63 067c 4f91 00f2 0a7d     ....b.c.|..O..}.
    3f7c:	8f93 6392 629d 0115 077e f726 2d26 0000     ...c.b..~.&.&-..
    3f8c:	0000 ff04 04ff 0b10 d175 b2b6 231e 01db     ........u....#..
    3f9c:	1104 750d 72d1 8ca3 ca46 287a 0400 0d12     ...u.r..F.z(....
    3fac:	d175 5232 43d6 3d65 0014 1304 750e 72d1     u.2R.Ce=.....u.r
    3fbc:	8ca3 ca32 a328 008c 1404 870f bb0f 1ccb     ..2.(...........
    3fcc:	cc73 a731 3431 040c 0d15 d175 a372 468c     s.1.14....u.r..F
    3fdc:	28ca 21a3 1604 770f 1311 8ca3 1ab2 462a     .(.!...w......*F
    3fec:	6519 0401 0d17 d175 72b6 6946 9d43 0016     .e....u..rFiC...
    3ffc:	1804 750b 92d1 95cd d6a6 0401 0c19 d195     ...u............
    400c:	c756 ae6c b534 040e 0c1a d175 6592 752a     V.l.4.....u..e*u
    401c:	558a 040e 0d1b d175 62ba 298a 98a6 0ea2     .U....u..b.)....
    402c:	1c04 770f 9311 5ee1 8c95 6a1a 61a8 0400     ...w...^...j.a..
    403c:	0a1d d175 ed92 b231 041d 0a1e d175 b2b6     ..u...1.....u...
    404c:	5a77 0400 081f d175 fb72 040e 0e20 d175     wZ....u.r... .u.
    405c:	5232 43d6 9465 4651 0400 0d21 d175 b2b6     2R.Ce.QF..!.u...
    406c:	1946 9465 02d3 2204 750e 32d1 4664 6519     F.e....".u.2dF.e
    407c:	5194 1146 2304 750c 92d1 34ed d232 0169     .QF..#.u...42.i.
    408c:	2404 9712 9f0f 50d1 ca31 a328 b28c 1a1a     .$.....P1.(.....
    409c:	0065 2504 750b 92d1 aa75 5aab 0407 1026     e..%.u..u..Z..&.
    40ac:	ef86 5392 394e 94e5 4e53 c363 0400 0d27     ...SN9..SNc...'.
    40bc:	d175 ed92 3234 28ca 00a3 2804 770f 1311     u...42.(...(.w..
    40cc:	8ca3 ca32 a328 638c 0408 1129 2f88 ab13     ..2.(..c..)../..
    40dc:	c558 562a 8ab1 18d5 0a9a 2a04 770f b311     X.*V.......*.w..
    40ec:	c671 8f19 e65c 1238 0400 0f2b 1177 a193     q...\.8...+.w...
    40fc:	1a86 a90e 4e93 0643 2c04 750e 92d1 4651     .....NC..,.u..QF
    410c:	8d19 f594 0050 2d04 750d b6d1 4672 2371     ....P..-.u..rFq#
    411c:	169d 0400 0f2e 3178 5793 32cc 2d0f ccb3     ......x1.W.2.-..
    412c:	017a 2f04 750c 36d1 4eb4 a623 0752 3004     z../.u.6.N#.R..0
    413c:	5409 36b1 99a2 0406 0b31 b174 f236 668a     .T.6....1.t.6..f
    414c:	0052 3204 540b b2b1 48e2 2471 0400 0833     R..2.T...Hq$..3.
    415c:	b154 7432 041b 0b34 ef66 63aa 31af 0a32     T.2t..4.f..c.12.
    416c:	3504 540a a6b1 d8e2 0148 3604 570c 1311     .5.T....H..6.W..
    417c:	aca3 8a86 1651 3704 540a a6b1 1562 0293     ....Q..7.T..b...
    418c:	3804 550a 92d1 4ae5 0753 3904 850c 56d1     .8.U...JS..9...V
    419c:	2a67 95cb 0ea6 3a04 540a 12b1 9255 0ca9     g*.....:.T..U...
    41ac:	3b04 5409 aab1 c97a 0400 0a3c d155 d792     .;.T..z...<.U...
    41bc:	5a4a 0407 093d b154 e512 3298 3e04 540a     JZ..=.T....2.>.T
    41cc:	a6b1 99a2 0014 3f04 5408 32b1 33a4 4004     .......?.T.2.3.@
    41dc:	740b b2ad 39a2 ce52 0400 0a41 b154 a2a6     .t...9R...A.T...
    41ec:	498e 0401 0c42 d155 6432 1946 1465 0401     .I..B.U.2dF.e...
    41fc:	0a43 ad74 9d12 2769 0405 1244 0d97 719f     C.t...i'..D....q
    420c:	4346 28c5 aca3 4686 6719 0400 0a45 b154     FC.(...F.g..E.T.
    421c:	6512 5152 0406 0d46 cf65 5312 314c 34c5     .eRQ..F.e..SL1.4
    422c:	0a34 4704 5409 12b1 da65 0405 0d48 1157     4..G.T..e...H.W.
    423c:	a313 328c 38ca 0086 4904 680e 132f 58ab     ...2.8...I.h/..X
    424c:	2ac5 6356 2a68 4a04 550b a2d1 4651 5ab3     .*Vch*.J.U..QF.Z
    425c:	0400 0d4b f156 9192 2346 34ca 0062 4c04     ..K.V...F#.4b..L
    426c:	540a 92b1 8af3 0123 4e04 560c 12f1 3955     .T....#..N.V..U9
    427c:	8aa2 0016 4f04 540a 36b1 5a62 0649 0000     .....O.T.6bZI...

0000428c <u8g2_font_profont12_tr>:
    428c:	0060 0203 0403 0403 0604 000b 08fe 09fe     `...............
    429c:	01ff 0243 038a 20b5 0005 03a2 0621 a341     ..C.... ....!.A.
    42ac:	12e3 0722 ba9b b123 2304 2d0b a7ae 2832     .."...#..#.-..2(
    42bc:	4195 00a9 0f24 9e55 5b2b 4a2a 25b6 a251     .A..$.U.+[*J.%Q.
    42cc:	b654 2508 450e 67a2 1250 9ba5 28a4 9489     T..%.E.gP....(..
    42dc:	2600 450d 47a2 d4aa 512a 4892 1291 0527     .&.E.G..*Q.H..'.
    42ec:	bb19 2863 d308 2b9e f529 2956 d309 239e     ..c(...+).V)...#
    42fc:	f52b 0252 0a2a ae2d 52ab 9a59 0022 0a2b     +.R.*.-..RY.".+.
    430c:	a62d 8c2b 2906 008c 082c 9aa2 4863 0014     -.+..)..,...cH..
    431c:	052d ae8b 2e63 1206 63a3 2f08 550c b39a     -...c....c./.U..
    432c:	6616 1661 6166 3008 450d 67a2 a4c9 9925     .fa.fa.0.E.g..%.
    433c:	2d34 0059 0931 a245 1a2b 1a7b 3204 450a     4-Y.1.E.+.{..2.E
    434c:	67a2 c2c9 e3ac 3320 450c 67a2 c2c9 0d48     .g.... 3.E.g..H.
    435c:	64b5 3401 450c 2fa2 9293 3252 6168 3536     .d.4.E./..R2ha65
    436c:	450c e3a2 0e18 a869 0b25 3600 450c 67a2     .E....i.%..6.E.g
    437c:	c309 c921 c96c 3702 450a 63a2 6b10 26c5     ..!.l..7.E.c.k.&
    438c:	3800 450c 67a2 b4c9 c964 c96c 3902 450c     .8.E.g..d.l..9.E
    439c:	67a2 6cc9 10c9 1656 3a00 3208 63a3 8708     .g.l..V..:.2.c..
    43ac:	3b00 c209 639a 8708 0144 073c a6bc 6a2f     .;...c..D.<.../j
    43bc:	3d6c 1d08 63ae 0750 3e01 bc08 23a6 6a6c     l=...cP..>...#lj
    43cc:	3f03 450b 67a2 c2c9 1d5a 008a 0e40 a245     .?.E.g..Z...@.E.
    43dc:	c967 2194 9449 4c21 0087 0d41 a245 4b2b     g..!I.!L..A.E.+K
    43ec:	a4a2 0da6 a643 4205 450d 63a2 3248 506d     ....C..B.E.cH2mP
    43fc:	db32 00a0 0a43 a245 c967 6ec4 02c9 0a44     2...C.E.g..n..D.
    440c:	a245 4863 df32 0506 0b45 a245 18e3 490e     E.cH2...E.E....I
    441c:	1c58 4604 450a e3a2 0e18 d849 4708 450c     X..F.E....I..G.E
    442c:	67a2 c4c9 a6d2 0b25 4800 450a 23a2 0db3     .g....%..H.E.#..
    443c:	e643 4916 450a 63a2 c290 069e 4a01 450a     C..I.E.c.....J.E
    444c:	b3a2 a6a3 0b25 4b00 450d 23a2 9293 a692     ....%..K.E.#....
    445c:	5125 0b25 084c a245 ec23 20e3 0c4d a245     %Q%.L.E.#.. M.E.
    446c:	5b23 4496 3449 00b7 0b4e a245 9b23 4494     #[.DI4..N.E.#..D
    447c:	dcda 4f02 450a 67a2 7cc9 164b 5000 450c     ...O.E.g.|K..P.E
    448c:	63a2 3248 506d 46c2 5100 4d0a 679e 7cc9     .cH2mP.F.Q.M.g.|
    449c:	aca9 5201 450c 63a2 3248 506d b732 5300     ...R.E.cH2mP2..S
    44ac:	450b 67a2 d4c9 d435 0592 0954 a245 9063     .E.g..5...T.E.c.
    44bc:	3ec2 5501 4509 23a2 5bf3 00b2 0c56 a245     .>.U.E.#.[..V.E.
    44cc:	7323 4a4b 1649 0046 0a57 a245 f323 2892     #sKJI.F.W.E.#..(
    44dc:	2dc9 0b58 a245 b323 b525 4d4a 590b 450a     .-X.E.#.%.JM.Y.E
    44ec:	23a2 4b73 616a 5a09 450a 63a2 b310 e18e     .#sKja.Z.E.c....
    44fc:	5b20 5208 639f 17e9 5c01 d50c 239a c34c      [.R.c...\...#L.
    450c:	4c34 34c3 5d0c d208 439e 97e9 5e01 1d08     4L.4.]...C...^..
    451c:	2bb6 6a4b 5f01 0e06 e39a 6000 9206 23be     .+Kj._.....`...#
    452c:	610a 2d09 67a2 4cd0 128a 0c62 a245 2c23     .a.-.g.L..b.E.#,
    453c:	490e 1b66 0014 0963 a22d c967 74c4 6408     .If...c.-.g..t.d
    454c:	450a b3a2 d065 c96c 6510 2d0a 67a2 86c9     .E..e.l..e.-.g..
    455c:	1d21 6602 c40a 4ba2 a689 13ac 6700 3d0c     !..f...K.....g.=
    456c:	679a 6cd0 10c9 0b26 6800 450a 23a2 0e2c     .g.l..&..h.E.#,.
    457c:	e649 6916 c308 27a2 5a97 6a06 5309 2b9a     I..i...'.Z.j.S.+
    458c:	3a97 002d 0b6b a245 6c23 4a4a 2553 6c0b     .:-.k.E.#lJJS%.l
    459c:	c308 43a2 cbea 6d00 2d0c 63a2 2a48 a24a     ...C...m.-.cH*J.
    45ac:	4a24 6e01 2d09 23a2 6931 00b6 096f a22d     $J.n.-.#1i..o.-.
    45bc:	c967 c96c 7002 3d0c 639a 3248 a0db 2184     g.l..p.=.cH2...!
    45cc:	7100 3d0a 679a 6cd0 10c9 7216 2d09 23a2     .q.=.g.l...r.-.#
    45dc:	8931 0045 0973 a22d 5067 0a0f 7400 c409     1.E.s.-.gP...t..
    45ec:	27a2 4d2b 5159 0975 a22d 7323 9452 7600     .'+MYQu.-.#sR..v
    45fc:	2d0b 23a2 92d3 9252 0045 0c77 a22d 4923     .-.#..R.E.w.-.#I
    460c:	4494 9449 002e 0a78 a22d 4b23 956a 005a     .DI...x.-.#Kj.Z.
    461c:	0b79 9a3d 7323 864b 5930 7a00 2d09 63a2     y.=.#sK.0Y.z.-.c
    462c:	dad0 0106 0a7b 9adb 892b b25a 2da8 067c     ....{...+.Z..-|.
    463c:	9f51 21e3 0b7d 9adb 8b23 92da 25a8 7e02     Q..!}...#....%.~
    464c:	1506 c7b2 7f05 0005 03a2 0000 0400 ffff     ................
    465c:	0000 0000                                   ....

00004660 <u8g2_font_streamline_food_drink_t>:
    4660:	0014 0304 0505 0403 1506 0015 1400 1400     ................
    4670:	0300 00a8 0400 306d b52e eb12 203a b394     ......m0....: ..
    4680:	ad8a ae89 f788 457d 4d74 4dac 4dac 2092     ......}EtM.M.M. 
    4690:	589b 909b 18a0 189b 9b22 9b58 9b58 a2d8     .X......".X.X...
    46a0:	b258 2383 3100 af31 6b1e 8d9d 3989 890a     X..#.11..k...9..
    46b0:	390d 88b0 3e96 9038 0d88 3039 0d89 3039     .9...>8...90..90
    46c0:	c891 c885 1644 0733 9144 0741 9144 7151     ....D.3.D.A.D.Qq
    46d0:	7161 0761 0032 3c32 12b4 93eb 0f10 1d49     aqa.2.2<......I.
    46e0:	1e15 0f13 0f11 4e15 3111 1a19 7217 3210     .......N.1...r.2
    46f0:	7114 1430 7213 2210 3892 4922 48b0 a0fa     .q0..r.".8"I.H..
    4700:	21d8 a951 3110 9891 ab28 f098 5128 83c1     .!Q..1..(...(Q..
    4710:	0031 3b33 3693 92eb 8f11 9108 109d 9411     1.3;.6..........
    4720:	5110 1136 1224 1655 1411 4631 3813 1213     .Q6.$.U...1F.8..
    4730:	1636 3411 3256 3076 4076 2075 7223 7520     6..4V2v0v@u #r u
    4740:	2640 3662 3634 3517 321a 0f3d 3401 b538     @&b646.5.2=..48.
    4750:	6b12 498b 268f 98e3 31c4 6389 1e12 cc1c     .k.I.&...1.c....
    4760:	83c4 8444 8545 c449 c847 cd03 a504 9899     ..D.E.I.G.......
    4770:	3160 0f21 0f24 f074 f207 f240 1140 20f1     `1!.$.t...@.@.. 
    4780:	0731 2307 3500 b539 eb12 0907 328b 888c     1..#.59......2..
    4790:	9309 32c9 5c6d 5c70 4c64 7458 6858 b648     ...2m\p\dLXtXhH.
    47a0:	5121 21b1 a151 5131 3191 c161 b171 6191     !Q.!Q.1Q.1a.q..a
    47b0:	1194 f1c6 f140 a131 1341 20f1 0021 4236     ....@.1.A.. !.6B
    47c0:	3295 34eb 131e 0b14 0b0a 0992 444a 1318     .2.4........JD..
    47d0:	1543 1213 2113 2416 2334 1127 2a13 1121     C....!.$4#'..*!.
    47e0:	220f 2314 1314 1412 3457 5225 7335 4530     .".#....W4%R5s0E
    47f0:	7122 6176 b137 6e42 8562 41e0 c1e9 0014     "qva7.Bnb..A....
    4800:	4837 3275 ad6b 929e 9294 8b89 0a8e 0991     7Hu2k...........
    4810:	8a09 9309 8b08 8889 9109 c889 0524 8a49     ............$.I.
    4820:	1144 1164 1152 1164 2112 3411 1121 0cd9     D.d.R.d..!.4!...
    4830:	a446 898d 0988 8a09 890a 1289 8912 9b8a     F...............
    4840:	0b89 9221 9a94 052e 3738 1eae 39eb 2a88     ..!.....87...9.*
    4850:	3999 9888 9838 3838 9098 10a1 9289 0909     .9..8.88........
    4860:	090d 890d 8909 0909 490d 9214 2686 3424     .........I...&$4
    4870:	3026 20ea 2430 2434 2434 2434 0c56 3900     &0. 0$4$4$4$V..9
    4880:	d52b eb91 9eac 8d8a 131c 0ba1 198a 0b89     +...............
    4890:	b189 8b88 3988 1388 883a 3293 a314 888c     .....9..:..2....
    48a0:	0987 9491 1291 991a 05a4 323a 91b5 a26b     ..........:2..k.
    48b0:	0997 0a8f 1389 0a89 0b09 0b11 46c9 242c     .............F,$
    48c0:	2117 0722 2113 2221 1179 9216 444d 4854     .!"..!!"y...MDTH
    48d0:	4858 5444 9c48 4c8c 083c 0035 2a3b 71f5     XHDTH..L<.5.;*.q
    48e0:	23eb 121f 0c95 8e0c 8911 088e 8f91 8791     .#..............
    48f0:	0889 0e91 1109 888f 898f 8e88 8908 8e08     ................
    4900:	1951 243b 0a4f 353c 3294 39eb 0b8e 0c8d     Q.;$O.<5.2.9....
    4910:	8d8c 0e0b 8e8b 888a 8a8d 8d88 890a 8a0d     ................
    4920:	8d09 898a 8b0c 8891 8b8a 8c0d 9c94 890a     ................
    4930:	91b5 8a0f 898f 890f 1107 3d01 b23c 6b16     ...........=<..k
    4940:	99ab 20b3 103c 188e 890e 098e 8a0e 0a8d     ... <...........
    4950:	8a2c 8a8b 8b09 09b3 0a8c 8889 8b8a 1448     ,.............H.
    4960:	1129 1114 1227 1113 1117 1115 1217 1314     )...'...........
    4970:	6315 1a17 5c15 3e03 152f eb72 963b 8c93     .c...\.>/.r.;...
    4980:	2ec9 2624 5449 a89a f8a0 f8a0 8398 8a83     ..$&IT..........
    4990:	2078 b189 88a1 1a88 9213 0383 f89a f8a0     x ..............
    49a0:	e8a8 03b8 0023 3c3f 3274 3a6b 0c28 0c0d     ....#.?<t2k:(...
    49b0:	8b8d 8838 1548 931a 2a34 3422 c0ee e84e     ..8.H...4*"4..N.
    49c0:	ca4e 42a2 222c 689d 8544 6044 455c c454     N..B,".hD.D`\ET.
    49d0:	c444 dc55 4c81 44c4 81c4 689d c45c 01c1     D.U..L.D...h\...
    49e0:	0005 3d40 5255 956b a987 3887 903f 398d     ..@=URk....8?..9
    49f0:	8c08 3990 910b 0aaa 8a13 0a08 8891 1110     ...9............
    4a00:	8989 9088 0a12 1489 0912 0891 9211 8889     ................
    4a10:	1110 8a92 9212 118b 1d12 0e12 a792 4107     ...............A
    4a20:	543c 6b52 0fa4 0e8a 8d8b 890a 0a8c 0c0a     <TRk............
    4a30:	4b89 161c 151c 1513 4d94 988a 8878 9890     .K.......M..x...
    4a40:	9983 9090 9283 9888 1a83 8889 8a83 9908     ................
    4a50:	9a83 9088 9283 8398 1103 4200 b344 6b16     ...........BD..k
    4a60:	8db9 0c8b 0929 088c 1149 5218 2812 1827     ....)...I..R.('.
    4a70:	7071 1210 1718 1711 1252 1611 4211 7211     qp......R....B.r
    4a80:	1252 1711 5237 2172 9211 4e22 24a4 4e6e     R...7Rr!.."N.$nN
    4a90:	a0ee e22c e220 e420 4220 44b2 14f6 4300     ..,. . . B.D...C
    4aa0:	b543 eb12 898b 898f 8907 0789 8989 898f     C...............
    4ab0:	7247 1670 1a13 1221 2a13 1112 1923 1113     Grp...!..*..#...
    4ac0:	1122 1318 2211 1811 8492 2430 648d 4c44     "...."....0$.dDL
    4ad0:	54b8 5c70 6070 dc68 81c1 3c50 d044 81c1     .Tp\p`h...P<D...
    4ae0:	0010 0000 0400 ffff 0000 0000               ............

00004aec <u8g2_cb_r2>:
    4aec:	1c5c 0000 1c24 0000 1b74 0000 1eb6 0000     \...$...t.......
    4afc:	1e9c 0000 1e9c 0000 1eae 0000 1eb6 0000     ................
    4b0c:	1eb6 0000                                   ....

00004b10 <u8x8_d_ssd1309_128x64_noname_init_seq>:
    4b10:	1518 15ae 16d5 15a0 1540 1620 1502 15a1     ........@. .....
    4b20:	15c8 16da 1512 1681 156f 16d9 15d3 16db     ........o.......
    4b30:	1520 152e 15a4 19a6 00ff 0000                ...........

00004b3c <u8x8_ssd1309_128x64_noname0_display_info>:
    4b3c:	0100 0a14 6464 3232 0900 003d 0400 9628     ....dd22..=...(.
    4b4c:	0810 0000 0080 0040 234c 0000 245c 0000     ......@.L#..\$..
    4b5c:	245c 0000 2324 0000 230a 0000 22f4 0000     \$..$#...#..."..
    4b6c:	245c 0000 245c 0000 245c 0000 245c 0000     \$..\$..\$..\$..
    4b7c:	245c 0000 245c 0000 2412 0000               \$..\$...$..

00004b88 <__compound_literal.0>:
    4b88:	0000 0000 0000 2000 246e 0000 246a 0000     ....... n$..j$..

00004b98 <fds_data>:
    4b98:	0055 3153 054c ff09 a4a7 dda7 d1a7 d3a7     U.S1L...........
    4ba8:	dfa7 e0a7 d6a7 a720 a7de a7d6 a7df fff0     ...... .........
    4bb8:	4846 0052 530c 4430 5047 0aff afa7 d1a7     FHR..S0DGP......
    4bc8:	e3a7 e4a7 e2a7 e0a7 dba7 dca7 d1a7 a720     .............. .
    4bd8:	a7d3 a7ed a7e7 a7e0 a7d5 7cd1 a70b a7a3     ...........|....
    4be8:	a7d6 20e3 daa7 dea7 e1a7 e5a7 dda7 eea7     ... ............
    4bf8:	e3a7 d1a7 0d7c b3a7 d2a7 e2a7 e0a7 e3a7     ....|...........
    4c08:	a720 a7df a7d1 a7e3 a7e4 a7e2 a7e0 a7d6      ...............
    4c18:	7cdc a70e a7ae a7d6 a7df 20f0 dfa7 d1a7     .|......... ....
    4c28:	a720 a7d1 a7df a7d4 a7dd a7da a7db a7e3      ...............
    4c38:	a7dc a7e0 ffde 4741 0543 0017 4741 0543     ......AGC...AGC.
    4c48:	0123 4741 0543 022f 4741 0543 033b 0e55     #.AGC./.AGC.;.U.
    4c58:	3253 054c ff0a 654d 756e 6920 206e 6e45     S2L...Menu in En
    4c68:	6c67 7369 ff68 4846 0052 410d 474c 1905     glish.FHR..ALG..
    4c78:	4100 474c 2505 4101 474c 3105 0002 0000     .ALG.%.ALG.1....

00004c88 <muif_list>:
    4c88:	3053 0000 2998 0000 0c20 0000 3153 0000     S0...).. ...S1..
    4c98:	3bec 0000 0c20 0000 3253 0000 428c 0000     .;.. ...S2...B..
    4ca8:	0c20 0000 3353 0000 4660 0000 0c20 0000      ...S3..`F.. ...
    4cb8:	5248 0000 0000 0000 2476 0000 5047 0000     HR......v$..GP..
    4cc8:	0000 0000 0c66 0000 4347 0001 0000 0000     ....f...GC......
    4cd8:	0c74 0000 474c 0001 4b88 0000 0d0a 0000     t...LG...K......
    4ce8:	4c2e 0000 0000 0000 0c3e 0000 4f0a 7470     .L......>....Opt
    4cf8:	6f69 206e 0031 0000 4f0b 7470 6f69 206e     ion 1....Option 
    4d08:	0032 0000 4f0d 7470 6f69 206e 0033 0000     2....Option 3...
